 rfc-v4.2.4

 Timestamp is 567fe8d2 (Sun Dec 27 14:34:10 2015)

 Preferred load address is 0000000180000000

 Start         Length     Name                   Class
 0001:00000000 000001dbH .text                   CODE
 0001:000001e0 00000017H .text$di                CODE
 0001:00000200 00013de7H .text$mn                CODE
 0001:00013ff0 00000012H .text$mn$00             CODE
 0001:00014010 00000260H .text$x                 CODE
 0001:00014270 000000a3H .text$yd                CODE
 0002:00000000 000003d0H .idata$5                DATA
 0002:000003d0 00000010H .00cfg                  DATA
 0002:000003e0 00000008H .CRT$XCA                DATA
 0002:000003e8 00000010H .CRT$XCU                DATA
 0002:000003f8 00000008H .CRT$XCZ                DATA
 0002:00000400 00000008H .CRT$XIA                DATA
 0002:00000408 00000020H .CRT$XIC                DATA
 0002:00000428 00000008H .CRT$XIZ                DATA
 0002:00000430 00000008H .CRT$XLA                DATA
 0002:00000438 00000008H .CRT$XLZ                DATA
 0002:00000440 00000008H .CRT$XPA                DATA
 0002:00000448 00000010H .CRT$XPX                DATA
 0002:00000458 00000008H .CRT$XPXA               DATA
 0002:00000460 00000008H .CRT$XPZ                DATA
 0002:00000468 00000008H .CRT$XTA                DATA
 0002:00000470 00000008H .CRT$XTZ                DATA
 0002:00000480 00008274H .rdata                  DATA
 0002:000086f8 00000028H .rdata$T                DATA
 0002:00008720 00000384H .rdata$r                DATA
 0002:00008aa8 00000010H .rdata$zETW0            DATA
 0002:00008ab8 00000077H .rdata$zETW1            DATA
 0002:00008b2f 0000002cH .rdata$zETW2            DATA
 0002:00008b5b 00000001H .rdata$zETW9            DATA
 0002:00008b5c 000004ccH .rdata$zzzdbg           DATA
 0002:00009028 00000008H .rtc$IAA                DATA
 0002:00009030 00000008H .rtc$IZZ                DATA
 0002:00009038 00000008H .rtc$TAA                DATA
 0002:00009040 00000008H .rtc$TZZ                DATA
 0002:00009048 00000efcH .xdata                  DATA
 0002:00009f48 000001e4H .xdata$x                DATA
 0002:0000a12c 00000020H .didat$2                DATA
 0002:0000a14c 00000020H .didat$3                DATA
 0002:0000a170 000001f0H .didat$4                DATA
 0002:0000a360 00000d50H .didat$6                DATA
 0002:0000b0b0 000001f0H .didat$7                DATA
 0002:0000b2a0 00000051H .edata                  DATA
 0002:0000b2f4 0000003cH .idata$2                DATA
 0002:0000b330 00000014H .idata$3                DATA
 0002:0000b348 000003d0H .idata$4                DATA
 0002:0000b718 00000894H .idata$6                DATA
 0003:00000000 00000988H .data                   DATA
 0003:00000988 00000117H .data$r                 DATA
 0003:00000aa0 000001f0H .didat$5                DATA
 0003:00000c90 00001160H .bss                    DATA
 0004:00000000 000012fcH .pdata                  DATA
 0005:00000000 0000007cH .gfids$x                DATA
 0005:0000007c 00000058H .gfids$y                DATA
 0006:00000000 00000001H .tls                    DATA
 0006:00000004 00000004H .tls$                   DATA
 0006:00000008 00000001H .tls$ZZZ                DATA
 0007:00000000 00000058H .rsrc$01                DATA
 0007:00000060 00000180H .rsrc$02                DATA

  Address         Publics by Value              Rva+Base               Lib:Object

 0000:00000000       __guard_iat_table          0000000000000000     <absolute>
 0000:00000000       __guard_iat_count          0000000000000000     <absolute>
 0000:00000000       __guard_longjmp_table      0000000000000000     <absolute>
 0000:00000000       __guard_longjmp_count      0000000000000000     <absolute>
 0000:00000000       __guard_fids_count         0000000000000000     <absolute>
 0000:00000000       ___safe_se_handler_table   0000000000000000     <absolute>
 0000:00000000       ___safe_se_handler_count   0000000000000000     <absolute>
 0000:00000000       __guard_fids_table         0000000000000000     <absolute>
 0000:00000100       __guard_flags              0000000000000100     <absolute>
 0000:00000000       __ImageBase                0000000180000000     <linker-defined>
 0001:00000000       ?TraceLoggingRegister@__vcrt_trace_logging_provider@@YAJPEBU_TlgProvider_t@1@PEBU_GUID@@P6AX1KE_K2PEAU_EVENT_FILTER_DESCRIPTOR@@PEAX@Z4@Z 0000000180001000 f i libvcruntime:telemetry.obj
 0001:0000007c       ?_TlgEnableCallback@__vcrt_trace_logging_provider@@YAXPEBU_GUID@@KE_K1PEAU_EVENT_FILTER_DESCRIPTOR@@PEAX@Z 000000018000107c f i libvcruntime:telemetry.obj
 0001:00000140       ?_TlgWrite@__vcrt_trace_logging_provider@@YAJPEBU_TlgProvider_t@1@PEFBXPEBU_GUID@@2IPEAU_EVENT_DATA_DESCRIPTOR@@@Z 0000000180001140 f i libvcruntime:telemetry.obj
 0001:00000200       ?InitAll@@YAXV?$Local@VObject@v8@@@v8@@@Z 0000000180001200 f   rfc.obj
 0001:00000220       __local_stdio_printf_options 0000000180001220 f i error.obj
 0001:00000230       sprintf                    0000000180001230 f i error.obj
 0001:00000290       ?RfcLibError@@YA?AV?$Local@VObject@v8@@@v8@@PEAU_RFC_ERROR_INFO@@PEAVIsolate@2@@Z 0000000180001290 f   error.obj
 0001:00000390       ?AbapError@@YA?AV?$Local@VObject@v8@@@v8@@PEAU_RFC_ERROR_INFO@@PEAVIsolate@2@@Z 0000000180001390 f   error.obj
 0001:000006f0       ?wrapError@@YA?AV?$Local@VValue@v8@@@v8@@PEAU_RFC_ERROR_INFO@@@Z 00000001800016f0 f   error.obj
 0001:00000860       ?convertToString@@YA?AV?$basic_string@DU?$char_traits@D@std@@V?$allocator@D@2@@std@@AEBV?$Local@VValue@v8@@@v8@@@Z 0000000180001860 f   rfcio.obj
 0001:00000970       ?fillString@@YAPEA_WAEBV?$Local@VValue@v8@@@v8@@@Z 0000000180001970 f   rfcio.obj
 0001:00000ac0       ?fillVariable@@YA?AV?$Local@VValue@v8@@@v8@@W4_RFCTYPE@@PEAURFC_DATA_CONTAINER@@PEA_WV12@PEAU_RFC_TYPE_DESC_HANDLE@@@Z 0000000180001ac0 f   rfcio.obj
 0001:00001300       ?fillFunctionParameter@@YA?AV?$Local@VValue@v8@@@v8@@PEAU_RFC_FUNCTION_DESC_HANDLE@@PEAURFC_DATA_CONTAINER@@V12@2@Z 0000000180002300 f   rfcio.obj
 0001:00001400       ?wrapResult@@YA?AV?$Local@VObject@v8@@@v8@@PEAU_RFC_FUNCTION_DESC_HANDLE@@PEAURFC_DATA_CONTAINER@@_N@Z 0000000180002400 f   rfcio.obj
 0001:00001620       ?wrapString@@YA?AV?$Local@VValue@v8@@@v8@@PEA_WH_N@Z 0000000180002620 f   rfcio.obj
 0001:000017d0       ?wrapStructure@@YA?AV?$Local@VValue@v8@@@v8@@PEAU_RFC_TYPE_DESC_HANDLE@@PEAURFC_DATA_CONTAINER@@_N@Z 00000001800027d0 f   rfcio.obj
 0001:000019f0       ?wrapVariable@@YA?AV?$Local@VValue@v8@@@v8@@W4_RFCTYPE@@PEAURFC_DATA_CONTAINER@@PEA_WIPEAU_RFC_TYPE_DESC_HANDLE@@_N@Z 00000001800029f0 f   rfcio.obj
 0001:00002100       ?assign@?$basic_string@DU?$char_traits@D@std@@V?$allocator@D@2@@std@@QEAAAEAV12@PEBD_K@Z 0000000180003100 f i rfcio.obj
 0001:00002240       ?assign@?$basic_string@DU?$char_traits@D@std@@V?$allocator@D@2@@std@@QEAAAEAV12@AEBV12@_K1@Z 0000000180003240 f i rfcio.obj
 0001:00002330       ?_Grow@?$basic_string@DU?$char_traits@D@std@@V?$allocator@D@2@@std@@QEAA_N_K_N@Z 0000000180003330 f i rfcio.obj
 0001:000023a0       ?erase@?$basic_string@DU?$char_traits@D@std@@V?$allocator@D@2@@std@@QEAAAEAV12@_K0@Z 00000001800033a0 f i rfcio.obj
 0001:00002450       ?_Copy@?$basic_string@DU?$char_traits@D@std@@V?$allocator@D@2@@std@@QEAAX_K0@Z 0000000180003450 f i rfcio.obj
 0001:000025e0       ??$destroy@PEAD@?$_Wrap_alloc@V?$allocator@D@std@@@std@@QEAAXPEAPEAD@Z 00000001800035e0 f i rfcio.obj
 0001:000025e0       __except_validate_context_record 00000001800035e0 f i libvcruntime:jbcxrval.obj
 0001:000025e0       _guard_check_icall_nop     00000001800035e0 f i LIBCMT:guard_support.obj
 0001:000025f0       ?NODE_SET_PROTOTYPE_METHOD@node@@YAXV?$Local@VFunctionTemplate@v8@@@v8@@PEBDP6AXAEBV?$FunctionCallbackInfo@VValue@v8@@@3@@Z@Z 00000001800035f0 f i Client.obj
 0001:00002710       ?Wrap@ObjectWrap@node@@IEAAXV?$Local@VObject@v8@@@v8@@@Z 0000000180003710 f i Client.obj
 0001:000027a0       ?Ref@ObjectWrap@node@@MEAAXXZ 00000001800037a0 f i Client.obj
 0001:000027c0       ?Unref@ObjectWrap@node@@MEAAXXZ 00000001800037c0 f i Client.obj
 0001:00002800       ?WeakCallback@ObjectWrap@node@@CAXAEBV?$WeakCallbackData@VObject@v8@@VObjectWrap@node@@@v8@@@Z 0000000180003800 f i Client.obj
 0001:00002860       ??_GObjectWrap@node@@UEAAPEAXI@Z 0000000180003860 f i Client.obj
 0001:00002860       ??_EObjectWrap@node@@UEAAPEAXI@Z 0000000180003860 f i * CIL library *:* CIL module *
 0001:000028c0       ??_GClient@@EEAAPEAXI@Z    00000001800038c0 f i Client.obj
 0001:000028c0       ??_EClient@@EEAAPEAXI@Z    00000001800038c0 f i * CIL library *:* CIL module *
 0001:00002900       ??1Client@@EEAA@XZ         0000000180003900 f   Client.obj
 0001:000029f0       ?Init@Client@@SAXV?$Local@VObject@v8@@@v8@@@Z 00000001800039f0 f   Client.obj
 0001:00002bf0       ?New@Client@@CAXAEBV?$FunctionCallbackInfo@VValue@v8@@@v8@@@Z 0000000180003bf0 f   Client.obj
 0001:00002f60       ?ConnectAsync@Client@@CAXPEAUuv_work_s@@@Z 0000000180003f60 f   Client.obj
 0001:00002fa0       ?ConnectAsyncAfter@Client@@CAXPEAUuv_work_s@@@Z 0000000180003fa0 f   Client.obj
 0001:00003130       ?Connect@Client@@CAXAEBV?$FunctionCallbackInfo@VValue@v8@@@v8@@@Z 0000000180004130 f   Client.obj
 0001:000032d0       ?Close@Client@@CAXAEBV?$FunctionCallbackInfo@VValue@v8@@@v8@@@Z 00000001800042d0 f   Client.obj
 0001:00003390       ?Reopen@Client@@CAXAEBV?$FunctionCallbackInfo@VValue@v8@@@v8@@@Z 0000000180004390 f   Client.obj
 0001:000033d0       ?IsAlive@Client@@CAXAEBV?$FunctionCallbackInfo@VValue@v8@@@v8@@@Z 00000001800043d0 f   Client.obj
 0001:00003470       ?InvokeAsync@Client@@CAXPEAUuv_work_s@@@Z 0000000180004470 f   Client.obj
 0001:000034b0       ?InvokeAsyncAfter@Client@@CAXPEAUuv_work_s@@@Z 00000001800044b0 f   Client.obj
 0001:00003670       ?Invoke@Client@@CAXAEBV?$FunctionCallbackInfo@VValue@v8@@@v8@@@Z 0000000180004670 f   Client.obj
 0001:00003ae0       ?Ping@Client@@CAXAEBV?$FunctionCallbackInfo@VValue@v8@@@v8@@@Z 0000000180004ae0 f   Client.obj
 0001:00003ba0       ?ConnectionInfo@Client@@CAXAEBV?$FunctionCallbackInfo@VValue@v8@@@v8@@@Z 0000000180004ba0 f   Client.obj
 0001:00004ff0       ?GetVersion@Client@@CAXAEBV?$FunctionCallbackInfo@VValue@v8@@@v8@@@Z 0000000180005ff0 f   Client.obj
 0001:0000517c       __imp_load_node_module_register 000000018000617c f   node:node.exe
 0001:00005188       __tailMerge_node_exe       0000000180006188 f i node:node.exe
 0001:00005201       __imp_load_?New@Integer@v8@@SA?AV?$Local@VInteger@v8@@@2@PEAVIsolate@2@H@Z 0000000180006201 f   node:node.exe
 0001:0000520d       __imp_load_?GetCurrent@Isolate@v8@@SAPEAV12@XZ 000000018000620d f   node:node.exe
 0001:00005219       __imp_load_??1HandleScope@v8@@QEAA@XZ 0000000180006219 f   node:node.exe
 0001:00005225       __imp_load_?Error@Exception@v8@@SA?AV?$Local@VValue@v8@@@2@V?$Local@VString@v8@@@2@@Z 0000000180006225 f   node:node.exe
 0001:00005231       __imp_load_?Escape@EscapableHandleScope@v8@@AEAAPEAPEAVObject@internal@2@PEAPEAV342@@Z 0000000180006231 f   node:node.exe
 0001:0000523d       __imp_load_??0EscapableHandleScope@v8@@QEAA@PEAVIsolate@1@@Z 000000018000623d f   node:node.exe
 0001:00005249       __imp_load_?NewFromUtf8@String@v8@@SA?AV?$Local@VString@v8@@@2@PEAVIsolate@2@PEBDW4NewStringType@12@H@Z 0000000180006249 f   node:node.exe
 0001:00005255       __imp_load_?Set@Object@v8@@QEAA_NV?$Local@VValue@v8@@@2@0@Z 0000000180006255 f   node:node.exe
 0001:00005261       __imp_load_?ToObject@Value@v8@@QEBA?AV?$Local@VObject@v8@@@2@XZ 0000000180006261 f   node:node.exe
 0001:0000526d       __imp_load_?ToString@Value@v8@@QEBA?AV?$Local@VString@v8@@@2@XZ 000000018000626d f   node:node.exe
 0001:00005279       __imp_load_??0HandleScope@v8@@QEAA@PEAVIsolate@1@@Z 0000000180006279 f   node:node.exe
 0001:00005285       __imp_load_?New@Array@v8@@SA?AV?$Local@VArray@v8@@@2@PEAVIsolate@2@H@Z 0000000180006285 f   node:node.exe
 0001:00005291       __imp_load_?CloneElementAt@Array@v8@@QEAA?AV?$Local@VObject@v8@@@2@I@Z 0000000180006291 f   node:node.exe
 0001:0000529d       __imp_load_?Length@Array@v8@@QEBAIXZ 000000018000629d f   node:node.exe
 0001:000052a9       __imp_load_??1Utf8Value@String@v8@@QEAA@XZ 00000001800062a9 f   node:node.exe
 0001:000052b5       __imp_load_??0Utf8Value@String@v8@@QEAA@V?$Local@VValue@v8@@@2@@Z 00000001800062b5 f   node:node.exe
 0001:000052c1       __imp_load_?Value@Int32@v8@@QEBAHXZ 00000001800062c1 f   node:node.exe
 0001:000052cd       __imp_load_?New@Number@v8@@SA?AV?$Local@VNumber@v8@@@2@PEAVIsolate@2@N@Z 00000001800062cd f   node:node.exe
 0001:000052d9       __imp_load_?Value@Number@v8@@QEBANXZ 00000001800062d9 f   node:node.exe
 0001:000052e5       __imp_load_?New@Object@v8@@SA?AV?$Local@VObject@v8@@@2@PEAVIsolate@2@@Z 00000001800062e5 f   node:node.exe
 0001:000052f1       __imp_load_?GetPropertyNames@Object@v8@@QEAA?AV?$Local@VArray@v8@@@2@XZ 00000001800062f1 f   node:node.exe
 0001:000052fd       __imp_load_?Get@Object@v8@@QEAA?AV?$Local@VValue@v8@@@2@V32@@Z 00000001800062fd f   node:node.exe
 0001:00005309       __imp_load_?Get@Object@v8@@QEAA?AV?$Local@VValue@v8@@@2@I@Z 0000000180006309 f   node:node.exe
 0001:00005315       __imp_load_?ToInt32@Value@v8@@QEBA?AV?$Local@VInt32@v8@@@2@XZ 0000000180006315 f   node:node.exe
 0001:00005321       __imp_load_?ToNumber@Value@v8@@QEBA?AV?$Local@VNumber@v8@@@2@XZ 0000000180006321 f   node:node.exe
 0001:0000532d       __imp_load_uv_mutex_unlock 000000018000632d f   node:node.exe
 0001:00005339       __imp_load_uv_queue_work   0000000180006339 f   node:node.exe
 0001:00005345       __imp_load_?Global@Context@v8@@QEAA?AV?$Local@VObject@v8@@@2@XZ 0000000180006345 f   node:node.exe
 0001:00005351       __imp_load_?New@Signature@v8@@SA?AV?$Local@VSignature@v8@@@2@PEAVIsolate@2@V?$Local@VFunctionTemplate@v8@@@2@@Z 0000000180006351 f   node:node.exe
 0001:0000535d       __imp_load_?ThrowException@Isolate@v8@@QEAA?AV?$Local@VValue@v8@@@2@V32@@Z 000000018000635d f   node:node.exe
 0001:00005369       __imp_load_?GetCurrentContext@Isolate@v8@@QEAA?AV?$Local@VContext@v8@@@2@XZ 0000000180006369 f   node:node.exe
 0001:00005375       __imp_load_?CreateHandle@HandleScope@v8@@KAPEAPEAVObject@internal@2@PEAVIsolate@42@PEAV342@@Z 0000000180006375 f   node:node.exe
 0001:00005381       __imp_load_?Set@Template@v8@@QEAAXV?$Local@VName@v8@@@2@V?$Local@VData@v8@@@2@W4PropertyAttribute@2@@Z 0000000180006381 f   node:node.exe
 0001:0000538d       __imp_load_?TypeError@Exception@v8@@SA?AV?$Local@VValue@v8@@@2@V?$Local@VString@v8@@@2@@Z 000000018000638d f   node:node.exe
 0001:00005399       __imp_load_?SetClassName@FunctionTemplate@v8@@QEAAXV?$Local@VString@v8@@@2@@Z 0000000180006399 f   node:node.exe
 0001:000053a5       __imp_load_?PrototypeTemplate@FunctionTemplate@v8@@QEAA?AV?$Local@VObjectTemplate@v8@@@2@XZ 00000001800063a5 f   node:node.exe
 0001:000053b1       __imp_load_?InstanceTemplate@FunctionTemplate@v8@@QEAA?AV?$Local@VObjectTemplate@v8@@@2@XZ 00000001800063b1 f   node:node.exe
 0001:000053bd       __imp_load_?GetFunction@FunctionTemplate@v8@@QEAA?AV?$Local@VFunction@v8@@@2@XZ 00000001800063bd f   node:node.exe
 0001:000053c9       __imp_load_?New@FunctionTemplate@v8@@SA?AV?$Local@VFunctionTemplate@v8@@@2@PEAVIsolate@2@P6AXAEBV?$FunctionCallbackInfo@VValue@v8@@@2@@ZV?$Local@VValue@v8@@@2@V?$Local@VSignature@v8@@@2@H@Z 00000001800063c9 f   node:node.exe
 0001:000053d5       __imp_load_?ClearWeak@V8@v8@@CAPEAXPEAPEAVObject@internal@2@@Z 00000001800063d5 f   node:node.exe
 0001:000053e1       __imp_load_?MakeWeak@V8@v8@@CAXPEAPEAVObject@internal@2@PEAXP6AXAEBV?$WeakCallbackData@VValue@v8@@X@2@@Z@Z 00000001800063e1 f   node:node.exe
 0001:000053ed       __imp_load_?DisposeGlobal@V8@v8@@CAXPEAPEAVObject@internal@2@@Z 00000001800063ed f   node:node.exe
 0001:000053f9       __imp_load_?GlobalizeReference@V8@v8@@CAPEAPEAVObject@internal@2@PEAVIsolate@42@PEAPEAV342@@Z 00000001800063f9 f   node:node.exe
 0001:00005405       __imp_load_?BooleanValue@Value@v8@@QEBA_NXZ 0000000180006405 f   node:node.exe
 0001:00005411       __imp_load_?IsBoolean@Value@v8@@QEBA_NXZ 0000000180006411 f   node:node.exe
 0001:0000541d       __imp_load_?IsObject@Value@v8@@QEBA_NXZ 000000018000641d f   node:node.exe
 0001:00005429       __imp_load_?IsFunction@Value@v8@@QEBA_NXZ 0000000180006429 f   node:node.exe
 0001:00005435       __imp_load_?HasCaught@TryCatch@v8@@QEBA_NXZ 0000000180006435 f   node:node.exe
 0001:00005441       __imp_load_??1TryCatch@v8@@QEAA@XZ 0000000180006441 f   node:node.exe
 0001:0000544d       __imp_load_??0TryCatch@v8@@QEAA@XZ 000000018000644d f   node:node.exe
 0001:00005459       __imp_load_?SlowGetAlignedPointerFromInternalField@Object@v8@@AEAAPEAXH@Z 0000000180006459 f   node:node.exe
 0001:00005465       __imp_load_?SetAlignedPointerInInternalField@Object@v8@@QEAAXHPEAX@Z 0000000180006465 f   node:node.exe
 0001:00005471       __imp_load_?SetName@Function@v8@@QEAAXV?$Local@VString@v8@@@2@@Z 0000000180006471 f   node:node.exe
 0001:0000547d       __imp_load_?Call@Function@v8@@QEAA?AV?$Local@VValue@v8@@@2@V32@HQEAV32@@Z 000000018000647d f   node:node.exe
 0001:00005489       __imp_load_?SetInternalFieldCount@ObjectTemplate@v8@@QEAAXH@Z 0000000180006489 f   node:node.exe
 0001:00005495       __imp_load_uv_mutex_lock   0000000180006495 f   node:node.exe
 0001:000054a1       __imp_load_?FatalException@node@@YAXPEAVIsolate@v8@@AEBVTryCatch@3@@Z 00000001800064a1 f   node:node.exe
 0001:000054ad       __imp_load_uv_mutex_destroy 00000001800064ad f   node:node.exe
 0001:000054b9       __imp_load_uv_mutex_init   00000001800064b9 f   node:node.exe
 0001:000054c5       __imp_load_uv_default_loop 00000001800064c5 f   node:node.exe
 0001:000054d4       ??0bad_alloc@std@@QEAA@AEBV01@@Z 00000001800064d4 f i libcpmt:xthrow.obj
 0001:00005514       ??0bad_alloc@std@@QEAA@XZ  0000000180006514 f i libcpmt:xthrow.obj
 0001:00005534       ??0exception@std@@QEAA@AEBV01@@Z 0000000180006534 f i libcpmt:xthrow.obj
 0001:0000556c       ??0length_error@std@@QEAA@AEBV01@@Z 000000018000656c f i libcpmt:xthrow.obj
 0001:000055ac       ??0length_error@std@@QEAA@PEBD@Z 00000001800065ac f i libcpmt:xthrow.obj
 0001:000055f8       ??0logic_error@std@@QEAA@AEBV01@@Z 00000001800065f8 f i libcpmt:xthrow.obj
 0001:00005638       ??0out_of_range@std@@QEAA@AEBV01@@Z 0000000180006638 f i libcpmt:xthrow.obj
 0001:00005678       ??0out_of_range@std@@QEAA@PEBD@Z 0000000180006678 f i libcpmt:xthrow.obj
 0001:000056c4       ??1bad_alloc@std@@UEAA@XZ  00000001800066c4 f i libcpmt:xthrow.obj
 0001:000056c4       ??1out_of_range@std@@UEAA@XZ 00000001800066c4 f i libcpmt:xthrow.obj
 0001:000056c4       ??1length_error@std@@UEAA@XZ 00000001800066c4 f i libcpmt:xthrow.obj
 0001:000056c4       ??1bad_array_new_length@std@@UEAA@XZ 00000001800066c4 f i LIBCMT:throw_bad_alloc.obj
 0001:000056d8       ?_Xbad_alloc@std@@YAXXZ    00000001800066d8 f   libcpmt:xthrow.obj
 0001:000056d8       ?__scrt_throw_std_bad_alloc@@YAXXZ 00000001800066d8 f   LIBCMT:throw_bad_alloc.obj
 0001:000056f8       ?_Xlength_error@std@@YAXPEBD@Z 00000001800066f8 f   libcpmt:xthrow.obj
 0001:0000571c       ?_Xout_of_range@std@@YAXPEBD@Z 000000018000671c f   libcpmt:xthrow.obj
 0001:00005740       ?what@exception@std@@UEBAPEBDXZ 0000000180006740 f i libcpmt:xthrow.obj
 0001:00005770       __security_check_cookie    0000000180006770 f   LIBCMT:_amdsecgs_.obj
 0001:000058dc       _Init_thread_footer        00000001800068dc f   LIBCMT:thread_safe_statics.obj
 0001:0000593c       _Init_thread_header        000000018000693c f   LIBCMT:thread_safe_statics.obj
 0001:000059a4       _Init_thread_notify        00000001800069a4 f   LIBCMT:thread_safe_statics.obj
 0001:00005a00       _Init_thread_wait          0000000180006a00 f   LIBCMT:thread_safe_statics.obj
 0001:00005a98       ??2@YAPEAX_K@Z             0000000180006a98 f   LIBCMT:new_scalar.obj
 0001:00005ad4       __scrt_acquire_startup_lock 0000000180006ad4 f   LIBCMT:utility.obj
 0001:00005b10       __scrt_dllmain_after_initialize_c 0000000180006b10 f   LIBCMT:utility.obj
 0001:00005b30       __scrt_dllmain_before_initialize_c 0000000180006b30 f   LIBCMT:utility.obj
 0001:00005b48       __scrt_dllmain_crt_thread_attach 0000000180006b48 f   LIBCMT:utility.obj
 0001:00005b70       __scrt_dllmain_crt_thread_detach 0000000180006b70 f   LIBCMT:utility.obj
 0001:00005b88       __scrt_dllmain_exception_filter 0000000180006b88 f   LIBCMT:utility.obj
 0001:00005bec       __scrt_dllmain_uninitialize_c 0000000180006bec f   LIBCMT:utility.obj
 0001:00005c1c       __scrt_dllmain_uninitialize_critical 0000000180006c1c f   LIBCMT:utility.obj
 0001:00005c30       __scrt_initialize_crt      0000000180006c30 f   LIBCMT:utility.obj
 0001:00005c7c       __scrt_initialize_onexit_tables 0000000180006c7c f   LIBCMT:utility.obj
 0001:00005d48       __scrt_is_nonwritable_in_current_image 0000000180006d48 f   LIBCMT:utility.obj
 0001:00005de4       __scrt_release_startup_lock 0000000180006de4 f   LIBCMT:utility.obj
 0001:00005e08       __scrt_uninitialize_crt    0000000180006e08 f   LIBCMT:utility.obj
 0001:00005e34       _onexit                    0000000180006e34 f   LIBCMT:utility.obj
 0001:00005e84       atexit                     0000000180006e84 f   LIBCMT:utility.obj
 0001:00005e9c       ??3@YAXPEAX@Z              0000000180006e9c f   LIBCMT:delete_scalar.obj
 0001:00005ea4       ??3@YAXPEAX_K@Z            0000000180006ea4 f   LIBCMT:delete_scalar_size.obj
 0001:00006208       _DllMainCRTStartup         0000000180007208 f   LIBCMT:dll_dllmain.obj
 0001:00006248       ??_Gtype_info@@UEAAPEAXI@Z 0000000180007248 f i LIBCMT:std_type_info_static.obj
 0001:00006248       ??_Etype_info@@UEAAPEAXI@Z 0000000180007248 f i LIBCMT:std_type_info_static.obj
 0001:00006274       __raise_securityfailure    0000000180007274 f   LIBCMT:gs_report.obj
 0001:000062a8       __report_gsfailure         00000001800072a8 f   LIBCMT:gs_report.obj
 0001:000063f0       __crt_debugger_hook        00000001800073f0 f   LIBCMT:utility_desktop.obj
 0001:000063f8       __scrt_fastfail            00000001800073f8 f   LIBCMT:utility_desktop.obj
 0001:00006540       _guard_check_icall         0000000180007540 f i LIBCMT:checkcfg.obj
 0001:00006548       ??0bad_array_new_length@std@@QEAA@AEBV01@@Z 0000000180007548 f i LIBCMT:throw_bad_alloc.obj
 0001:00006588       ??0bad_array_new_length@std@@QEAA@XZ 0000000180007588 f i LIBCMT:throw_bad_alloc.obj
 0001:000065a8       ??_Glength_error@std@@UEAAPEAXI@Z 00000001800075a8 f i libcpmt:xthrow.obj
 0001:000065a8       ??_Ebad_array_new_length@std@@UEAAPEAXI@Z 00000001800075a8 f i LIBCMT:throw_bad_alloc.obj
 0001:000065a8       ??_Ebad_alloc@std@@UEAAPEAXI@Z 00000001800075a8 f i libcpmt:xthrow.obj
 0001:000065a8       ??_Eout_of_range@std@@UEAAPEAXI@Z 00000001800075a8 f i libcpmt:xthrow.obj
 0001:000065a8       ??_Gexception@std@@UEAAPEAXI@Z 00000001800075a8 f i libcpmt:xthrow.obj
 0001:000065a8       ??_Elogic_error@std@@UEAAPEAXI@Z 00000001800075a8 f i libcpmt:xthrow.obj
 0001:000065a8       ??_Gbad_alloc@std@@UEAAPEAXI@Z 00000001800075a8 f i libcpmt:xthrow.obj
 0001:000065a8       ??_Eexception@std@@UEAAPEAXI@Z 00000001800075a8 f i libcpmt:xthrow.obj
 0001:000065a8       ??_Gout_of_range@std@@UEAAPEAXI@Z 00000001800075a8 f i libcpmt:xthrow.obj
 0001:000065a8       ??_Gbad_array_new_length@std@@UEAAPEAXI@Z 00000001800075a8 f i LIBCMT:throw_bad_alloc.obj
 0001:000065a8       ??_Elength_error@std@@UEAAPEAXI@Z 00000001800075a8 f i libcpmt:xthrow.obj
 0001:000065a8       ??_Glogic_error@std@@UEAAPEAXI@Z 00000001800075a8 f i libcpmt:xthrow.obj
 0001:000065ec       ?__scrt_throw_std_bad_array_new_length@@YAXXZ 00000001800075ec f   LIBCMT:throw_bad_alloc.obj
 0001:0000660c       __isa_available_init       000000018000760c f   LIBCMT:_cpu_disp_.obj
 0001:000067d0       __scrt_is_ucrt_dll_in_use  00000001800077d0 f   LIBCMT:ucrt_detection.obj
 0001:000067dc       __security_init_cookie     00000001800077dc f   LIBCMT:gs_support.obj
 0001:00006888       DllMain                    0000000180007888 f   LIBCMT:dll_dllmain_stub.obj
 0001:00006890       ?__scrt_initialize_type_info@@YAXXZ 0000000180007890 f   LIBCMT:tncleanup.obj
 0001:000068a0       ?__scrt_uninitialize_type_info@@YAXXZ 00000001800078a0 f   LIBCMT:tncleanup.obj
 0001:000068ac       __local_stdio_scanf_options 00000001800078ac f i LIBCMT:default_local_stdio_options.obj
 0001:000068b4       __scrt_initialize_default_local_stdio_options 00000001800078b4 f   LIBCMT:default_local_stdio_options.obj
 0001:000068d0       __scrt_get_dyn_tls_init_callback 00000001800078d0 f   LIBCMT:dyn_tls_init.obj
 0001:000068d8       _RTC_Initialize            00000001800078d8 f   LIBCMT:_initsect_.obj
 0001:00006924       _RTC_Terminate             0000000180007924 f   LIBCMT:_initsect_.obj
 0001:00006980       memcpy                     0000000180007980 f   libvcruntime:memcpy.obj
 0001:00006980       memmove                    0000000180007980 f   libvcruntime:memcpy.obj
 0001:00006db8       __std_exception_copy       0000000180007db8 f   libvcruntime:std_exception.obj
 0001:00006e48       __std_exception_destroy    0000000180007e48 f   libvcruntime:std_exception.obj
 0001:00006e70       _CxxThrowException         0000000180007e70 f   libvcruntime:throw.obj
 0001:00007110       __vcrt_EventRegister       0000000180008110 f   libvcruntime:winapi_downlevel.obj
 0001:00007194       __vcrt_EventSetInformation 0000000180008194 f   libvcruntime:winapi_downlevel.obj
 0001:00007218       __vcrt_EventUnregister     0000000180008218 f   libvcruntime:winapi_downlevel.obj
 0001:0000726c       __vcrt_EventWriteTransfer  000000018000826c f   libvcruntime:winapi_downlevel.obj
 0001:00007304       __vcrt_FlsAlloc            0000000180008304 f   libvcruntime:winapi_downlevel.obj
 0001:00007358       __vcrt_FlsFree             0000000180008358 f   libvcruntime:winapi_downlevel.obj
 0001:000073ac       __vcrt_FlsGetValue         00000001800083ac f   libvcruntime:winapi_downlevel.obj
 0001:00007400       __vcrt_FlsSetValue         0000000180008400 f   libvcruntime:winapi_downlevel.obj
 0001:00007468       __vcrt_InitializeCriticalSectionEx 0000000180008468 f   libvcruntime:winapi_downlevel.obj
 0001:000074e0       __vcrt_initialize_winapi_thunks 00000001800084e0 f   libvcruntime:winapi_downlevel.obj
 0001:00007518       __vcrt_uninitialize_winapi_thunks 0000000180008518 f   libvcruntime:winapi_downlevel.obj
 0001:00007558       __vcrt_initialize          0000000180008558 f   libvcruntime:initialization.obj
 0001:00007590       __vcrt_thread_attach       0000000180008590 f   libvcruntime:initialization.obj
 0001:000075a4       __vcrt_thread_detach       00000001800085a4 f   libvcruntime:initialization.obj
 0001:000075b8       __vcrt_uninitialize        00000001800085b8 f   libvcruntime:initialization.obj
 0001:000075e4       __vcrt_uninitialize_critical 00000001800085e4 f   libvcruntime:initialization.obj
 0001:000075f4       __C_specific_handler       00000001800085f4 f   libvcruntime:_chandler_.obj
 0001:000077e8       __telemetry_main_invoke_trigger 00000001800087e8 f   libvcruntime:telemetry.obj
 0001:00007900       __telemetry_main_return_trigger 0000000180008900 f   libvcruntime:telemetry.obj
 0001:00007a18       __vcrt_initialize_telemetry_provider 0000000180008a18 f   libvcruntime:telemetry.obj
 0001:00007a2c       __vcrt_uninitialize_telemetry_provider 0000000180008a2c f   libvcruntime:telemetry.obj
 0001:00007a60       memset                     0000000180008a60 f   libvcruntime:memset.obj
 0001:00007c00       __std_type_info_destroy_list 0000000180008c00 f   libvcruntime:std_type_info.obj
 0001:00007c2c       __vcrt_freefls             0000000180008c2c f   libvcruntime:per_thread_data.obj
 0001:00007c4c       __vcrt_freeptd             0000000180008c4c f   libvcruntime:per_thread_data.obj
 0001:00007c9c       __vcrt_getptd_noexit       0000000180008c9c f   libvcruntime:per_thread_data.obj
 0001:00007d44       __vcrt_initialize_ptd      0000000180008d44 f   libvcruntime:per_thread_data.obj
 0001:00007d84       __vcrt_uninitialize_ptd    0000000180008d84 f   libvcruntime:per_thread_data.obj
 0001:00007da8       __vcrt_initialize_locks    0000000180008da8 f   libvcruntime:locks.obj
 0001:00007df0       __vcrt_uninitialize_locks  0000000180008df0 f   libvcruntime:locks.obj
 0001:00007e28       __vcrt_initialize_pure_virtual_call_handler 0000000180008e28 f   libvcruntime:purevirt_data.obj
 0001:00007e60       _local_unwind              0000000180008e60 f   libvcruntime:_jmpuwind_.obj
 0001:00007e90       _NLG_Notify                0000000180008e90 f   libvcruntime:_jmpuwind_.obj
 0001:00007eb0       __NLG_Dispatch2            0000000180008eb0 f   libvcruntime:_jmpuwind_.obj
 0001:00007ec0       __NLG_Return2              0000000180008ec0 f   libvcruntime:_jmpuwind_.obj
 0001:00007ec4       ??$ensure_buffer_is_big_enough@D@formatting_buffer@__crt_stdio_output@@QEAA_N_K@Z 0000000180008ec4 f i libucrt:output.obj
 0001:00007f70       ??$is_wide_character_specifier@D@__crt_stdio_output@@YA_N_KDW4length_modifier@0@@Z 0000000180008f70 f i libucrt:output.obj
 0001:00007fa0       ??$type_case_integer_parse_into_buffer@I@?$output_processor@DV?$string_output_adapter@D@__crt_stdio_output@@V?$standard_base@DV?$string_output_adapter@D@__crt_stdio_output@@@2@@__crt_stdio_output@@AEAAXII_N@Z 0000000180008fa0 f i libucrt:output.obj
 0001:0000803c       ??$type_case_integer_parse_into_buffer@_K@?$output_processor@DV?$string_output_adapter@D@__crt_stdio_output@@V?$standard_base@DV?$string_output_adapter@D@__crt_stdio_output@@@2@@__crt_stdio_output@@AEAAX_KI_N@Z 000000018000903c f i libucrt:output.obj
 0001:000080d8       ??$write_multiple_characters@V?$string_output_adapter@D@__crt_stdio_output@@D@__crt_stdio_output@@YAXAEBV?$string_output_adapter@D@0@DHQEAH@Z 00000001800090d8 f i libucrt:output.obj
 0001:00008134       ??0?$output_processor@DV?$string_output_adapter@D@__crt_stdio_output@@V?$standard_base@DV?$string_output_adapter@D@__crt_stdio_output@@@2@@__crt_stdio_output@@QEAA@AEBV?$string_output_adapter@D@1@_KQEBDQEAU__crt_locale_pointers@@QEAD@Z 0000000180009134 f i libucrt:output.obj
 0001:000081b0       ??0_LocaleUpdate@@QEAA@QEAU__crt_locale_pointers@@@Z 00000001800091b0 f i libucrt:output.obj
 0001:00008240       ?force_decimal_point@__crt_stdio_output@@YAXPEADQEAU__crt_locale_pointers@@@Z 0000000180009240 f i libucrt:output.obj
 0001:000082b0       ?parse_int_from_format_string@?$output_processor@DV?$string_output_adapter@D@__crt_stdio_output@@V?$standard_base@DV?$string_output_adapter@D@__crt_stdio_output@@@2@@__crt_stdio_output@@AEAA_NQEAH@Z 00000001800092b0 f i libucrt:output.obj
 0001:00008334       ?process@?$output_processor@DV?$string_output_adapter@D@__crt_stdio_output@@V?$standard_base@DV?$string_output_adapter@D@__crt_stdio_output@@@2@@__crt_stdio_output@@QEAAHXZ 0000000180009334 f i libucrt:output.obj
 0001:00008538       ?state_case_normal@?$output_processor@DV?$string_output_adapter@D@__crt_stdio_output@@V?$standard_base@DV?$string_output_adapter@D@__crt_stdio_output@@@2@@__crt_stdio_output@@AEAA_NXZ 0000000180009538 f i libucrt:output.obj
 0001:000085ac       ?state_case_normal_tchar@?$output_processor@DV?$string_output_adapter@D@__crt_stdio_output@@V?$standard_base@DV?$string_output_adapter@D@__crt_stdio_output@@@2@@__crt_stdio_output@@AEAA_ND@Z 00000001800095ac f i libucrt:output.obj
 0001:00008644       ?state_case_size@?$output_processor@DV?$string_output_adapter@D@__crt_stdio_output@@V?$standard_base@DV?$string_output_adapter@D@__crt_stdio_output@@@2@@__crt_stdio_output@@AEAA_NXZ 0000000180009644 f i libucrt:output.obj
 0001:000087c0       ?state_case_type@?$output_processor@DV?$string_output_adapter@D@__crt_stdio_output@@V?$standard_base@DV?$string_output_adapter@D@__crt_stdio_output@@@2@@__crt_stdio_output@@AEAA_NXZ 00000001800097c0 f i libucrt:output.obj
 0001:00008a3c       ?type_case_Z@?$output_processor@DV?$string_output_adapter@D@__crt_stdio_output@@V?$standard_base@DV?$string_output_adapter@D@__crt_stdio_output@@@2@@__crt_stdio_output@@AEAA_NXZ 0000000180009a3c f i libucrt:output.obj
 0001:00008abc       ?type_case_a@?$output_processor@DV?$string_output_adapter@D@__crt_stdio_output@@V?$standard_base@DV?$string_output_adapter@D@__crt_stdio_output@@@2@@__crt_stdio_output@@AEAA_NXZ 0000000180009abc f i libucrt:output.obj
 0001:00008cd8       ?type_case_c_tchar@?$output_processor@DV?$string_output_adapter@D@__crt_stdio_output@@V?$standard_base@DV?$string_output_adapter@D@__crt_stdio_output@@@2@@__crt_stdio_output@@AEAA_ND@Z 0000000180009cd8 f i libucrt:output.obj
 0001:00008d8c       ?type_case_integer@?$output_processor@DV?$string_output_adapter@D@__crt_stdio_output@@V?$standard_base@DV?$string_output_adapter@D@__crt_stdio_output@@@2@@__crt_stdio_output@@AEAA_NI_N@Z 0000000180009d8c f i libucrt:output.obj
 0001:00008f2c       ?type_case_n@?$output_processor@DV?$string_output_adapter@D@__crt_stdio_output@@V?$standard_base@DV?$string_output_adapter@D@__crt_stdio_output@@@2@@__crt_stdio_output@@AEAA_NXZ 0000000180009f2c f i libucrt:output.obj
 0001:00009008       ?type_case_s@?$output_processor@DV?$string_output_adapter@D@__crt_stdio_output@@V?$standard_base@DV?$string_output_adapter@D@__crt_stdio_output@@@2@@__crt_stdio_output@@AEAA_NXZ 000000018000a008 f i libucrt:output.obj
 0001:00009098       ?write_stored_string_tchar@?$output_processor@DV?$string_output_adapter@D@__crt_stdio_output@@V?$standard_base@DV?$string_output_adapter@D@__crt_stdio_output@@@2@@__crt_stdio_output@@AEAA_ND@Z 000000018000a098 f i libucrt:output.obj
 0001:00009170       ?write_string@?$string_output_adapter@D@__crt_stdio_output@@QEBAXQEBDHQEAH1@Z 000000018000a170 f i libucrt:output.obj
 0001:0000922c       __stdio_common_vsprintf    000000018000a22c f   libucrt:output.obj
 0001:00009460       free                       000000018000a460 f   libucrt:free.obj
 0001:00009468       isdigit                    000000018000a468 f i libucrt:_ctype.obj
 0001:000094dc       isspace                    000000018000a4dc f i libucrt:_ctype.obj
 0001:00009550       __acrt_call_reportfault    000000018000a550 f   libucrt:invalid_parameter.obj
 0001:000096ac       __acrt_initialize_invalid_parameter_handler 000000018000a6ac f   libucrt:invalid_parameter.obj
 0001:000096b4       _invalid_parameter         000000018000a6b4 f   libucrt:invalid_parameter.obj
 0001:0000975c       _invalid_parameter_noinfo  000000018000a75c f   libucrt:invalid_parameter.obj
 0001:0000977c       _invalid_parameter_noinfo_noreturn 000000018000a77c f   libucrt:invalid_parameter.obj
 0001:000097ac       _invoke_watson             000000018000a7ac f   libucrt:invalid_parameter.obj
 0001:000097f4       malloc                     000000018000a7f4 f   libucrt:malloc.obj
 0001:000097fc       __ascii_stricmp            000000018000a7fc f   libucrt:stricmp.obj
 0001:00009838       _stricmp                   000000018000a838 f   libucrt:stricmp.obj
 0001:00009880       _stricmp_l                 000000018000a880 f   libucrt:stricmp.obj
 0001:00009934       __acrt_initialize_new_handler 000000018000a934 f   libucrt:new_handler.obj
 0001:0000993c       _callnewh                  000000018000a93c f   libucrt:new_handler.obj
 0001:0000997c       _query_new_handler         000000018000a97c f   libucrt:new_handler.obj
 0001:000099b0       _seh_filter_dll            000000018000a9b0 f   libucrt:exception_filter.obj
 0001:000099c4       _seh_filter_exe            000000018000a9c4 f   libucrt:exception_filter.obj
 0001:00009d84       __acrt_initialize_thread_local_exit_callback 000000018000ad84 f   libucrt:exit.obj
 0001:00009d8c       _cexit                     000000018000ad8c f   libucrt:exit.obj
 0001:00009d9c       _exit                      000000018000ad9c f   libucrt:exit.obj
 0001:00009da8       _is_c_termination_complete 000000018000ada8 f   libucrt:exit.obj
 0001:00009f94       __dcrt_uninitialize_environments_nolock 000000018000af94 f   libucrt:environment_initialization.obj
 0001:00009fcc       _initialize_narrow_environment 000000018000afcc f   libucrt:environment_initialization.obj
 0001:00009fd4       ??$?RV<lambda_b8c45f8f788dd370798f47cfe8ac3a86>@@AEAV<lambda_4e60a939b0d047cfe11ddc22648dfba9>@@V<lambda_332c3edc96d0294ec56c57d38c1cdfd5>@@@?$__crt_seh_guarded_call@H@@QEAAH$$QEAV<lambda_b8c45f8f788dd370798f47cfe8ac3a86>@@AEAV<lambda_4e60a939b0d047cfe11ddc22648dfba9>@@$$QEAV<lambda_332c3edc96d0294ec56c57d38c1cdfd5>@@@Z 000000018000afd4 f i libucrt:onexit.obj
 0001:0000a010       ??$?RV<lambda_e24bbb7b643b32fcea6fa61b31d4c984>@@AEAV<lambda_275893d493268fdec8709772e3fcec0e>@@V<lambda_9d71df4d7cf3f480f8d633942495c3b0>@@@?$__crt_seh_guarded_call@H@@QEAAH$$QEAV<lambda_e24bbb7b643b32fcea6fa61b31d4c984>@@AEAV<lambda_275893d493268fdec8709772e3fcec0e>@@$$QEAV<lambda_9d71df4d7cf3f480f8d633942495c3b0>@@@Z 000000018000b010 f i libucrt:onexit.obj
 0001:0000a38c       _crt_atexit                000000018000b38c f   libucrt:onexit.obj
 0001:0000a39c       _execute_onexit_table      000000018000b39c f   libucrt:onexit.obj
 0001:0000a3d8       _initialize_onexit_table   000000018000b3d8 f   libucrt:onexit.obj
 0001:0000a418       _register_onexit_function  000000018000b418 f   libucrt:onexit.obj
 0001:0000a498       __acrt_uninitialize_command_line 000000018000b498 f   libucrt:argv_data.obj
 0001:0000a598       __acrt_initialize          000000018000b598 f   libucrt:initialization.obj
 0001:0000a5ac       __acrt_thread_attach       000000018000b5ac f   libucrt:initialization.obj
 0001:0000a5c0       __acrt_thread_detach       000000018000b5c0 f   libucrt:initialization.obj
 0001:0000a5d0       __acrt_uninitialize        000000018000b5d0 f   libucrt:initialization.obj
 0001:0000a5e4       __acrt_uninitialize_critical 000000018000b5e4 f   libucrt:initialization.obj
 0001:0000a5f4       _initterm                  000000018000b5f4 f   libucrt:initterm.obj
 0001:0000a66c       _initterm_e                000000018000b66c f   libucrt:initterm.obj
 0001:0000a6b8       terminate                  000000018000b6b8 f   libucrt:terminate.obj
 0001:0000a6e0       strcpy_s                   000000018000b6e0 f   libucrt:strcpy_s.obj
 0001:0000a740       _free_base                 000000018000b740 f   libucrt:free_base.obj
 0001:0000a780       _malloc_base               000000018000b780 f   libucrt:malloc_base.obj
 0001:0000a7e0       abort                      000000018000b7e0 f   libucrt:abort.obj
 0001:0000a838       _calloc_base               000000018000b838 f   libucrt:calloc_base.obj
 0001:0000a8b0       ??$is_overflow_condition@K@__crt_strtox@@YA_NIK@Z 000000018000b8b0 f i libucrt:atox.obj
 0001:0000a8dc       ??$parse_integer@KV?$c_string_character_source@D@__crt_strtox@@@__crt_strtox@@YAKQEAU__crt_locale_pointers@@V?$c_string_character_source@D@0@H_N@Z 000000018000b8dc f i libucrt:atox.obj
 0001:0000ac40       _tolower_l                 000000018000bc40 f   libucrt:tolower_toupper.obj
 0001:0000ad80       tolower                    000000018000bd80 f   libucrt:tolower_toupper.obj
 0001:0000adac       __acrt_errno_from_os_error 000000018000bdac f   libucrt:errno.obj
 0001:0000adf4       __acrt_errno_map_os_error  000000018000bdf4 f   libucrt:errno.obj
 0001:0000ae44       __doserrno                 000000018000be44 f   libucrt:errno.obj
 0001:0000ae64       _errno                     000000018000be64 f   libucrt:errno.obj
 0001:0000ae84       ??$make_c_string_character_source@DPEAPEAD@__crt_strtox@@YA?AV?$c_string_character_source@D@0@QEBDQEAPEAD@Z 000000018000be84 f i libucrt:strtox.obj
 0001:0000ae98       strtol                     000000018000be98 f   libucrt:strtox.obj
 0001:0000aec8       _mbtowc_l                  000000018000bec8 f   libucrt:mbtowc.obj
 0001:0000b010       mbtowc                     000000018000c010 f   libucrt:mbtowc.obj
 0001:0000b018       _wctomb_s_l                000000018000c018 f   libucrt:wctomb.obj
 0001:0000b19c       wctomb_s                   000000018000c19c f   libucrt:wctomb.obj
 0001:0000b1b0       strnlen                    000000018000c1b0 f   libucrt:strnlen.obj
 0001:0000b30c       wcsnlen                    000000018000c30c f   libucrt:strnlen.obj
 0001:0000b4fc       ??$?RV<lambda_46352004c1216016012b18bd6f87e700>@@AEAV<lambda_3bd07e1a1191394380780325891bf33f>@@V<lambda_334532d3f185bcaa59b5be82d7d22bff>@@@?$__crt_seh_guarded_call@X@@QEAAX$$QEAV<lambda_46352004c1216016012b18bd6f87e700>@@AEAV<lambda_3bd07e1a1191394380780325891bf33f>@@$$QEAV<lambda_334532d3f185bcaa59b5be82d7d22bff>@@@Z 000000018000c4fc f i libucrt:per_thread_data.obj
 0001:0000b55c       ??$?RV<lambda_5e887d1dcbef67a5eb4283622ba103bf>@@AEAV<lambda_4466841279450cc726390878d4a41900>@@V<lambda_341c25c0346d94847f1f3c463c57e077>@@@?$__crt_seh_guarded_call@X@@QEAAX$$QEAV<lambda_5e887d1dcbef67a5eb4283622ba103bf>@@AEAV<lambda_4466841279450cc726390878d4a41900>@@$$QEAV<lambda_341c25c0346d94847f1f3c463c57e077>@@@Z 000000018000c55c f i libucrt:per_thread_data.obj
 0001:0000b5a4       ??$?RV<lambda_72d1df2b273a38828b1ce30cbf4cdab5>@@AEAV<lambda_876a65b173b8412d3a47c70a915b0cf4>@@V<lambda_41932305e351933ebe8f8be3ed8bb5dc>@@@?$__crt_seh_guarded_call@X@@QEAAX$$QEAV<lambda_72d1df2b273a38828b1ce30cbf4cdab5>@@AEAV<lambda_876a65b173b8412d3a47c70a915b0cf4>@@$$QEAV<lambda_41932305e351933ebe8f8be3ed8bb5dc>@@@Z 000000018000c5a4 f i libucrt:per_thread_data.obj
 0001:0000b5e4       ??$?RV<lambda_fb3a7dec4e47f37f22dae91bb15c9095>@@AEAV<lambda_698284760c8add0bfb0756c19673e34b>@@V<lambda_dfb8eca1e75fef3034a8fb18dd509707>@@@?$__crt_seh_guarded_call@X@@QEAAX$$QEAV<lambda_fb3a7dec4e47f37f22dae91bb15c9095>@@AEAV<lambda_698284760c8add0bfb0756c19673e34b>@@$$QEAV<lambda_dfb8eca1e75fef3034a8fb18dd509707>@@@Z 000000018000c5e4 f i libucrt:per_thread_data.obj
 0001:0000b874       __acrt_freeptd             000000018000c874 f   libucrt:per_thread_data.obj
 0001:0000b8b8       __acrt_getptd              000000018000c8b8 f   libucrt:per_thread_data.obj
 0001:0000b94c       __acrt_getptd_noexit       000000018000c94c f   libucrt:per_thread_data.obj
 0001:0000b9ec       __acrt_initialize_ptd      000000018000c9ec f   libucrt:per_thread_data.obj
 0001:0000ba28       __acrt_uninitialize_ptd    000000018000ca28 f   libucrt:per_thread_data.obj
 0001:0000ba4c       __acrt_update_locale_info  000000018000ca4c f   libucrt:locale_update.obj
 0001:0000ba80       __acrt_update_multibyte_info 000000018000ca80 f   libucrt:locale_update.obj
 0001:0000bab4       ?__acrt_fp_classify@@YA?AW4__acrt_fp_class@@AEBN@Z 000000018000cab4 f i libucrt:cvt.obj
 0001:0000c4ec       __acrt_fp_format           000000018000d4ec f   libucrt:cvt.obj
 0001:0000c730       _fileno                    000000018000d730 f   libucrt:fileno.obj
 0001:0000c758       __acrt_initialize_stdio    000000018000d758 f   libucrt:_file.obj
 0001:0000c878       __acrt_uninitialize_stdio  000000018000d878 f   libucrt:_file.obj
 0001:0000c8d4       _lock_file                 000000018000d8d4 f   libucrt:_file.obj
 0001:0000c8e0       _unlock_file               000000018000d8e0 f   libucrt:_file.obj
 0001:0000c8ec       _get_printf_count_output   000000018000d8ec f   libucrt:printf_count_output.obj
 0001:0000c904       __acrt_set_locale_changed  000000018000d904 f   libucrt:wsetlocale.obj
 0001:0000c910       __acrt_uninitialize_locale 000000018000d910 f   libucrt:wsetlocale.obj
 0001:0000cb40       __acrt_initialize_lowio    000000018000db40 f   libucrt:ioinit.obj
 0001:0000cb7c       __acrt_uninitialize_lowio  000000018000db7c f   libucrt:ioinit.obj
 0001:0000cbbc       __pctype_func              000000018000dbbc f   libucrt:ctype.obj
 0001:0000cbec       _isctype_l                 000000018000dbec f   libucrt:isctype.obj
 0001:0000ccfc       __acrt_initialize_locks    000000018000dcfc f   libucrt:locks.obj
 0001:0000cd44       __acrt_lock                000000018000dd44 f   libucrt:locks.obj
 0001:0000cd60       __acrt_uninitialize_locks  000000018000dd60 f   libucrt:locks.obj
 0001:0000cd98       __acrt_unlock              000000018000dd98 f   libucrt:locks.obj
 0001:0000cf54       __acrt_FlsAlloc            000000018000df54 f   libucrt:winapi_thunks.obj
 0001:0000cfac       __acrt_FlsFree             000000018000dfac f   libucrt:winapi_thunks.obj
 0001:0000d004       __acrt_FlsGetValue         000000018000e004 f   libucrt:winapi_thunks.obj
 0001:0000d05c       __acrt_FlsSetValue         000000018000e05c f   libucrt:winapi_thunks.obj
 0001:0000d0c4       __acrt_InitializeCriticalSectionEx 000000018000e0c4 f   libucrt:winapi_thunks.obj
 0001:0000d13c       __acrt_LCMapStringEx       000000018000e13c f   libucrt:winapi_thunks.obj
 0001:0000d22c       __acrt_LocaleNameToLCID    000000018000e22c f   libucrt:winapi_thunks.obj
 0001:0000d294       __acrt_initialize_winapi_thunks 000000018000e294 f   libucrt:winapi_thunks.obj
 0001:0000d2cc       __acrt_is_packaged_app     000000018000e2cc f   libucrt:winapi_thunks.obj
 0001:0000d354       __acrt_uninitialize_winapi_thunks 000000018000e354 f   libucrt:winapi_thunks.obj
 0001:0000d398       ??$?RV<lambda_99476a1ad63dd22509b5d3e65b0ffc95>@@AEAV<lambda_ad1ced32f4ac17aa236e5ef05d6b3b7c>@@V<lambda_f7424dd8d45958661754dc4f2697e9c3>@@@?$__crt_seh_guarded_call@X@@QEAAX$$QEAV<lambda_99476a1ad63dd22509b5d3e65b0ffc95>@@AEAV<lambda_ad1ced32f4ac17aa236e5ef05d6b3b7c>@@$$QEAV<lambda_f7424dd8d45958661754dc4f2697e9c3>@@@Z 000000018000e398 f i libucrt:mbctype.obj
 0001:0000da94       __acrt_initialize_multibyte 000000018000ea94 f   libucrt:mbctype.obj
 0001:0000dabc       __acrt_update_thread_multibyte_data 000000018000eabc f   libucrt:mbctype.obj
 0001:0000db7c       _setmbcp_nolock            000000018000eb7c f   libucrt:mbctype.obj
 0001:0000de24       __dcrt_get_narrow_environment_from_os 000000018000ee24 f   libucrt:get_environment_from_os.obj
 0001:0000df28       _recalloc                  000000018000ef28 f   libucrt:recalloc.obj
 0001:0000df30       _recalloc_base             000000018000ef30 f   libucrt:recalloc.obj
 0001:0000dfc8       __acrt_initialize_heap     000000018000efc8 f   libucrt:heap_handle.obj
 0001:0000dfe4       __acrt_uninitialize_heap   000000018000efe4 f   libucrt:heap_handle.obj
 0001:0000dff0       __acrt_initialize_command_line 000000018000eff0 f   libucrt:argv_data.obj
 0001:0000e018       __acrt_execute_initializers 000000018000f018 f   libucrt:shared_initialization.obj
 0001:0000e0ac       __acrt_execute_uninitializers 000000018000f0ac f   libucrt:shared_initialization.obj
 0001:0000e0fc       ??$?RV<lambda_c36588078e9f5dfd39652860aa6b3aaf>@@AEAV<lambda_ec61778202f4f5fc7e7711acc23c3bca>@@V<lambda_dc9d2797ccde5d239b4a0efae8ebd7db>@@@?$__crt_seh_guarded_call@P6AXH@Z@@QEAAP6AXH@Z$$QEAV<lambda_c36588078e9f5dfd39652860aa6b3aaf>@@AEAV<lambda_ec61778202f4f5fc7e7711acc23c3bca>@@$$QEAV<lambda_dc9d2797ccde5d239b4a0efae8ebd7db>@@@Z 000000018000f0fc f i libucrt:signal.obj
 0001:0000e144       __acrt_get_sigabrt_handler 000000018000f144 f   libucrt:signal.obj
 0001:0000e174       __acrt_initialize_signal_handlers 000000018000f174 f   libucrt:signal.obj
 0001:0000e194       raise                      000000018000f194 f   libucrt:signal.obj
 0001:0000e430       __acrt_has_user_matherr    000000018000f430 f   libucrt:matherr.obj
 0001:0000e450       __acrt_initialize_user_matherr 000000018000f450 f   libucrt:matherr.obj
 0001:0000e458       __acrt_invoke_user_matherr 000000018000f458 f   libucrt:matherr.obj
 0001:0000e4a0       _query_new_mode            000000018000f4a0 f   libucrt:new_mode.obj
 0001:0000e4a8       _isleadbyte_l              000000018000f4a8 f i libucrt:_wctype.obj
 0001:0000e844       __acrt_LCMapStringA        000000018000f844 f   libucrt:lcmapstringa.obj
 0001:0000e8dc       __acrt_add_locale_ref      000000018000f8dc f   libucrt:locale_refcounting.obj
 0001:0000e968       __acrt_free_locale         000000018000f968 f   libucrt:locale_refcounting.obj
 0001:0000eae0       __acrt_locale_add_lc_time_reference 000000018000fae0 f   libucrt:locale_refcounting.obj
 0001:0000eb08       __acrt_locale_free_lc_time_if_unreferenced 000000018000fb08 f   libucrt:locale_refcounting.obj
 0001:0000eb40       __acrt_locale_release_lc_time_reference 000000018000fb40 f   libucrt:locale_refcounting.obj
 0001:0000eb68       __acrt_release_locale_ref  000000018000fb68 f   libucrt:locale_refcounting.obj
 0001:0000ec10       __acrt_update_thread_locale_data 000000018000fc10 f   libucrt:locale_refcounting.obj
 0001:0000ec80       _updatetlocinfoEx_nolock   000000018000fc80 f   libucrt:locale_refcounting.obj
 0001:0000ece8       __acrt_fp_strflt_to_string 000000018000fce8 f   libucrt:_fptostr.obj
 0001:0000edb0       ?divide@__crt_strtox@@YA_KAEAUbig_integer@1@AEBU21@@Z 000000018000fdb0 f i libucrt:cfout.obj
 0001:0000f280       __acrt_fltout              0000000180010280 f   libucrt:cfout.obj
 0001:00010674       _fcloseall                 0000000180011674 f   libucrt:closeall.obj
 0001:00010728       __acrt_stdio_flush_nolock  0000000180011728 f   libucrt:fflush.obj
 0001:000107a0       _fflush_nolock             00000001800117a0 f   libucrt:fflush.obj
 0001:000107ec       _flushall                  00000001800117ec f   libucrt:fflush.obj
 0001:000108dc       __acrt_stdio_free_buffer_nolock 00000001800118dc f   libucrt:_freebuf.obj
 0001:0001091c       _isatty                    000000018001191c f   libucrt:isatty.obj
 0001:0001097c       __acrt_locale_free_monetary 000000018001197c f   libucrt:initmon.obj
 0001:00010a88       __acrt_locale_free_numeric 0000000180011a88 f   libucrt:initnum.obj
 0001:00010b4c       __acrt_locale_free_time    0000000180011b4c f   libucrt:inittime.obj
 0001:00010c54       __acrt_GetStringTypeA      0000000180011c54 f   libucrt:getstringtypea.obj
 0001:00010e08       __acrt_lowio_create_handle_array 0000000180011e08 f   libucrt:osfinfo.obj
 0001:00010ea0       __acrt_lowio_destroy_handle_array 0000000180011ea0 f   libucrt:osfinfo.obj
 0001:00010ef0       __acrt_lowio_ensure_fh_exists 0000000180011ef0 f   libucrt:osfinfo.obj
 0001:00010fa8       __acrt_lowio_lock_fh       0000000180011fa8 f   libucrt:osfinfo.obj
 0001:00010fcc       __acrt_lowio_unlock_fh     0000000180011fcc f   libucrt:osfinfo.obj
 0001:00010ff0       _free_osfhnd               0000000180011ff0 f   libucrt:osfinfo.obj
 0001:000110ac       _get_osfhandle             00000001800120ac f   libucrt:osfinfo.obj
 0001:000111ec       __acrt_DownlevelLocaleNameToLCID 00000001800121ec f   libucrt:lcidtoname_downlevel.obj
 0001:00011238       _msize                     0000000180012238 f   libucrt:msize.obj
 0001:00011274       _realloc_base              0000000180012274 f   libucrt:realloc_base.obj
 0001:000112f8       __strncnt                  00000001800122f8 f   libucrt:strncnt.obj
 0001:00011310       fegetenv                   0000000180012310 f   libucrt:fegetenv.obj
 0001:00011330       fesetenv                   0000000180012330 f   libucrt:fesetenv.obj
 0001:0001137c       feholdexcept               000000018001237c f   libucrt:feholdexcept.obj
 0001:000113cc       ceil                       00000001800123cc f   libucrt:ceil.obj
 0001:00011490       log10                      0000000180012490 f   libucrt:log10.obj
 0001:00011fdc       _write                     0000000180012fdc f   libucrt:write.obj
 0001:000120c8       _write_nolock              00000001800130c8 f   libucrt:write.obj
 0001:00012448       _lseeki64_nolock           0000000180013448 f   libucrt:lseek.obj
 0001:00012450       _fclose_nolock             0000000180013450 f   libucrt:fclose.obj
 0001:000124d4       fclose                     00000001800134d4 f   libucrt:fclose.obj
 0001:00012540       ??$?RV<lambda_b521505b218e5242e90febf6bfebc422>@@AEAV<lambda_6978c1fb23f02e42e1d9e99668cc68aa>@@V<lambda_314360699dd331753a4119843814e9a7>@@@?$__crt_seh_guarded_call@H@@QEAAH$$QEAV<lambda_b521505b218e5242e90febf6bfebc422>@@AEAV<lambda_6978c1fb23f02e42e1d9e99668cc68aa>@@$$QEAV<lambda_314360699dd331753a4119843814e9a7>@@@Z 0000000180013540 f i libucrt:commit.obj
 0001:000125cc       _commit                    00000001800135cc f   libucrt:commit.obj
 0001:00012660       _query_app_type            0000000180013660 f   libucrt:report_runtime_error.obj
 0001:00012668       _getfpcontrolword          0000000180013668 f   libucrt:_fenvutils.obj
 0001:00012680       _getfpstatusword           0000000180013680 f   libucrt:_fenvutils.obj
 0001:00012694       _setfpcontrolword          0000000180013694 f   libucrt:_fenvutils.obj
 0001:000126a0       _setfpstatusword           00000001800136a0 f   libucrt:_fenvutils.obj
 0001:000126f0       _clearfp                   00000001800136f0 f   libucrt:ieee.obj
 0001:00012744       _controlfp                 0000000180013744 f   libucrt:ieee.obj
 0001:00012750       _statusfp                  0000000180013750 f   libucrt:ieee.obj
 0001:00012b54       _handle_error              0000000180013b54 f   libucrt:libm_error.obj
 0001:00012c7c       _handle_nan                0000000180013c7c f   libucrt:libm_error.obj
 0001:00012ca0       __acrt_initialize_fma3     0000000180013ca0 f   libucrt:fma3_available.obj
 0001:00012d10       _log10_special             0000000180013d10 f   libucrt:log_special.obj
 0001:00012dc8       _putwch_nolock             0000000180013dc8 f   libucrt:putwch.obj
 0001:00012e24       ??$?RV<lambda_bfedae4ebbf01fab1bb6dcc6a9e276e0>@@AEAV<lambda_2fe9b910cf3cbf4a0ab98a02ba45b3ec>@@V<lambda_237c231691f317818eb88cc1d5d642d6>@@@?$__crt_seh_guarded_call@H@@QEAAH$$QEAV<lambda_bfedae4ebbf01fab1bb6dcc6a9e276e0>@@AEAV<lambda_2fe9b910cf3cbf4a0ab98a02ba45b3ec>@@$$QEAV<lambda_237c231691f317818eb88cc1d5d642d6>@@@Z 0000000180013e24 f i libucrt:close.obj
 0001:00012e98       _close                     0000000180013e98 f   libucrt:close.obj
 0001:00012f3c       _close_nolock              0000000180013f3c f   libucrt:close.obj
 0001:00012ff8       ?__acrt_stdio_free_stream@@YAXV__crt_stdio_stream@@@Z 0000000180013ff8 f   libucrt:stream.obj
 0001:00013050       _get_fpsr                  0000000180014050 f   libucrt:fpsr.obj
 0001:00013060       _set_fpsr                  0000000180014060 f   libucrt:fpsr.obj
 0001:0001306a       _fclrf                     000000018001406a f   libucrt:fpsr.obj
 0001:0001307e       _frnd                      000000018001407e f   libucrt:fpsr.obj
 0001:000130a0       _raise_exc                 00000001800140a0 f   libucrt:fpexcept.obj
 0001:000130c8       _raise_exc_ex              00000001800140c8 f   libucrt:fpexcept.obj
 0001:000133d0       _set_errno_from_matherr    00000001800143d0 f   libucrt:fpexcept.obj
 0001:00013400       _clrfp                     0000000180014400 f   libucrt:fpctrl.obj
 0001:00013420       _ctrlfp                    0000000180014420 f   libucrt:fpctrl.obj
 0001:0001349c       _set_statfp                000000018001449c f   libucrt:fpctrl.obj
 0001:000134bc       _statfp                    00000001800144bc f   libucrt:fpctrl.obj
 0001:000134d0       __dcrt_lowio_initialize_console_output 00000001800144d0 f   libucrt:initcon.obj
 0001:0001350c       __dcrt_terminate_console_output 000000018001450c f   libucrt:initcon.obj
 0001:0001352c       IsProcessorFeaturePresent  000000018001452c f   kernel32:KERNEL32.dll
 0001:00013532       RtlUnwindEx                0000000180014532 f   kernel32:KERNEL32.dll
 0001:00013538       SystemFunction036          0000000180014538 f   advapi32:ADVAPI32.dll
 0001:00013540       ?DloadAcquireSectionWriteAccess@@YAXXZ 0000000180014540 f i DelayImp:delayhlp.obj
 0001:000135fc       ?DloadGetSRWLockFunctionPointers@@YAEXZ 00000001800145fc f i DelayImp:delayhlp.obj
 0001:00013698       ?DloadMakePermanentImageCommit@@YAXPEAX_K@Z 0000000180014698 f i DelayImp:delayhlp.obj
 0001:00013730       ?DloadObtainSection@@YAPEAXPEAK0@Z 0000000180014730 f i DelayImp:delayhlp.obj
 0001:000137c8       ?DloadProtectSection@@YAXKPEAK@Z 00000001800147c8 f i DelayImp:delayhlp.obj
 0001:00013858       ?DloadReleaseSectionWriteAccess@@YAXXZ 0000000180014858 f i DelayImp:delayhlp.obj
 0001:000138fc       __delayLoadHelper2         00000001800148fc f   DelayImp:delayhlp.obj
 0001:00013c10       _FindPESection             0000000180014c10 f   LIBCMT:pesect.obj
 0001:00013c60       _IsNonwritableInCurrentImage 0000000180014c60 f   LIBCMT:pesect.obj
 0001:00013cb0       _ValidateImageBase         0000000180014cb0 f   LIBCMT:pesect.obj
 0001:00013ce0       __GSHandlerCheck           0000000180014ce0 f   LIBCMT:_gshandler_.obj
 0001:00013d00       __GSHandlerCheckCommon     0000000180014d00 f   LIBCMT:_gshandler_.obj
 0001:00013d70       __chkstk                   0000000180014d70 f   LIBCMT:_chkstk_.obj
 0001:00013d70       _alloca_probe              0000000180014d70 f   LIBCMT:_chkstk_.obj
 0001:00013dc4       strrchr                    0000000180014dc4 f   libvcruntime:strrchr.obj
 0001:00013f20       memcmp                     0000000180014f20 f   libvcruntime:memcmp.obj
 0001:00014000       _guard_dispatch_icall_nop  0000000180015000 f   LIBCMT:_guard_dispatch_.obj
 0002:00000000       __imp_SystemFunction036    0000000180016000     advapi32:ADVAPI32.dll
 0002:00000008       \177ADVAPI32_NULL_THUNK_DATA 0000000180016008     advapi32:ADVAPI32.dll
 0002:00000010       __imp_GetSystemInfo        0000000180016010     kernel32:KERNEL32.dll
 0002:00000018       __imp_VirtualProtect       0000000180016018     kernel32:KERNEL32.dll
 0002:00000020       __imp_VirtualQuery         0000000180016020     kernel32:KERNEL32.dll
 0002:00000028       __imp_QueryPerformanceCounter 0000000180016028     kernel32:KERNEL32.dll
 0002:00000030       __imp_CreateFileW          0000000180016030     kernel32:KERNEL32.dll
 0002:00000038       __imp_WriteConsoleW        0000000180016038     kernel32:KERNEL32.dll
 0002:00000040       __imp_FlushFileBuffers     0000000180016040     kernel32:KERNEL32.dll
 0002:00000048       __imp_SetFilePointerEx     0000000180016048     kernel32:KERNEL32.dll
 0002:00000050       __imp_GetConsoleMode       0000000180016050     kernel32:KERNEL32.dll
 0002:00000058       __imp_GetConsoleCP         0000000180016058     kernel32:KERNEL32.dll
 0002:00000060       __imp_WriteFile            0000000180016060     kernel32:KERNEL32.dll
 0002:00000068       __imp_HeapReAlloc          0000000180016068     kernel32:KERNEL32.dll
 0002:00000070       __imp_HeapSize             0000000180016070     kernel32:KERNEL32.dll
 0002:00000078       __imp_SetStdHandle         0000000180016078     kernel32:KERNEL32.dll
 0002:00000080       __imp_GetStringTypeW       0000000180016080     kernel32:KERNEL32.dll
 0002:00000088       __imp_GetCommandLineW      0000000180016088     kernel32:KERNEL32.dll
 0002:00000090       __imp_GetCommandLineA      0000000180016090     kernel32:KERNEL32.dll
 0002:00000098       __imp_GetProcessHeap       0000000180016098     kernel32:KERNEL32.dll
 0002:000000a0       __imp_FreeEnvironmentStringsW 00000001800160a0     kernel32:KERNEL32.dll
 0002:000000a8       __imp_GetEnvironmentStringsW 00000001800160a8     kernel32:KERNEL32.dll
 0002:000000b0       __imp_GetCPInfo            00000001800160b0     kernel32:KERNEL32.dll
 0002:000000b8       __imp_GetOEMCP             00000001800160b8     kernel32:KERNEL32.dll
 0002:000000c0       __imp_IsValidCodePage      00000001800160c0     kernel32:KERNEL32.dll
 0002:000000c8       __imp_LCMapStringW         00000001800160c8     kernel32:KERNEL32.dll
 0002:000000d0       __imp_GetFileType          00000001800160d0     kernel32:KERNEL32.dll
 0002:000000d8       __imp_GetStdHandle         00000001800160d8     kernel32:KERNEL32.dll
 0002:000000e0       __imp_GetACP               00000001800160e0     kernel32:KERNEL32.dll
 0002:000000e8       __imp_HeapAlloc            00000001800160e8     kernel32:KERNEL32.dll
 0002:000000f0       __imp_HeapFree             00000001800160f0     kernel32:KERNEL32.dll
 0002:000000f8       __imp_WideCharToMultiByte  00000001800160f8     kernel32:KERNEL32.dll
 0002:00000100       __imp_MultiByteToWideChar  0000000180016100     kernel32:KERNEL32.dll
 0002:00000108       __imp_GetModuleHandleW     0000000180016108     kernel32:KERNEL32.dll
 0002:00000110       __imp_CloseHandle          0000000180016110     kernel32:KERNEL32.dll
 0002:00000118       __imp_EnterCriticalSection 0000000180016118     kernel32:KERNEL32.dll
 0002:00000120       __imp_LeaveCriticalSection 0000000180016120     kernel32:KERNEL32.dll
 0002:00000128       __imp_DeleteCriticalSection 0000000180016128     kernel32:KERNEL32.dll
 0002:00000130       __imp_SetEvent             0000000180016130     kernel32:KERNEL32.dll
 0002:00000138       __imp_ResetEvent           0000000180016138     kernel32:KERNEL32.dll
 0002:00000140       __imp_WaitForSingleObjectEx 0000000180016140     kernel32:KERNEL32.dll
 0002:00000148       __imp_CreateEventW         0000000180016148     kernel32:KERNEL32.dll
 0002:00000150       __imp_GetProcAddress       0000000180016150     kernel32:KERNEL32.dll
 0002:00000158       __imp_RtlCaptureContext    0000000180016158     kernel32:KERNEL32.dll
 0002:00000160       __imp_RtlLookupFunctionEntry 0000000180016160     kernel32:KERNEL32.dll
 0002:00000168       __imp_RtlVirtualUnwind     0000000180016168     kernel32:KERNEL32.dll
 0002:00000170       __imp_UnhandledExceptionFilter 0000000180016170     kernel32:KERNEL32.dll
 0002:00000178       __imp_SetUnhandledExceptionFilter 0000000180016178     kernel32:KERNEL32.dll
 0002:00000180       __imp_GetCurrentProcess    0000000180016180     kernel32:KERNEL32.dll
 0002:00000188       __imp_TerminateProcess     0000000180016188     kernel32:KERNEL32.dll
 0002:00000190       __imp_IsProcessorFeaturePresent 0000000180016190     kernel32:KERNEL32.dll
 0002:00000198       __imp_IsDebuggerPresent    0000000180016198     kernel32:KERNEL32.dll
 0002:000001a0       __imp_GetStartupInfoW      00000001800161a0     kernel32:KERNEL32.dll
 0002:000001a8       __imp_LoadLibraryExA       00000001800161a8     kernel32:KERNEL32.dll
 0002:000001b0       __imp_GetCurrentProcessId  00000001800161b0     kernel32:KERNEL32.dll
 0002:000001b8       __imp_GetCurrentThreadId   00000001800161b8     kernel32:KERNEL32.dll
 0002:000001c0       __imp_GetSystemTimeAsFileTime 00000001800161c0     kernel32:KERNEL32.dll
 0002:000001c8       __imp_InitializeSListHead  00000001800161c8     kernel32:KERNEL32.dll
 0002:000001d0       __imp_RtlPcToFileHeader    00000001800161d0     kernel32:KERNEL32.dll
 0002:000001d8       __imp_RaiseException       00000001800161d8     kernel32:KERNEL32.dll
 0002:000001e0       __imp_GetLastError         00000001800161e0     kernel32:KERNEL32.dll
 0002:000001e8       __imp_InitializeCriticalSectionAndSpinCount 00000001800161e8     kernel32:KERNEL32.dll
 0002:000001f0       __imp_TlsAlloc             00000001800161f0     kernel32:KERNEL32.dll
 0002:000001f8       __imp_TlsGetValue          00000001800161f8     kernel32:KERNEL32.dll
 0002:00000200       __imp_TlsSetValue          0000000180016200     kernel32:KERNEL32.dll
 0002:00000208       __imp_TlsFree              0000000180016208     kernel32:KERNEL32.dll
 0002:00000210       __imp_FreeLibrary          0000000180016210     kernel32:KERNEL32.dll
 0002:00000218       __imp_LoadLibraryExW       0000000180016218     kernel32:KERNEL32.dll
 0002:00000220       __imp_RtlUnwindEx          0000000180016220     kernel32:KERNEL32.dll
 0002:00000228       __imp_GetModuleFileNameW   0000000180016228     kernel32:KERNEL32.dll
 0002:00000230       __imp_InterlockedFlushSList 0000000180016230     kernel32:KERNEL32.dll
 0002:00000238       __imp_SetLastError         0000000180016238     kernel32:KERNEL32.dll
 0002:00000240       __imp_ExitProcess          0000000180016240     kernel32:KERNEL32.dll
 0002:00000248       __imp_GetModuleHandleExW   0000000180016248     kernel32:KERNEL32.dll
 0002:00000250       \177KERNEL32_NULL_THUNK_DATA 0000000180016250     kernel32:KERNEL32.dll
 0002:00000258       __imp_RfcDestroyFunction   0000000180016258     sapnwrfc:sapnwrfc.dll
 0002:00000260       __imp_RfcGetVersion        0000000180016260     sapnwrfc:sapnwrfc.dll
 0002:00000268       __imp_RfcCreateFunction    0000000180016268     sapnwrfc:sapnwrfc.dll
 0002:00000270       __imp_RfcPing              0000000180016270     sapnwrfc:sapnwrfc.dll
 0002:00000278       __imp_RfcOpenConnection    0000000180016278     sapnwrfc:sapnwrfc.dll
 0002:00000280       __imp_RfcCloseConnection   0000000180016280     sapnwrfc:sapnwrfc.dll
 0002:00000288       __imp_RfcGetConnectionAttributes 0000000180016288     sapnwrfc:sapnwrfc.dll
 0002:00000290       __imp_RfcInvoke            0000000180016290     sapnwrfc:sapnwrfc.dll
 0002:00000298       __imp_RfcGetFunctionDesc   0000000180016298     sapnwrfc:sapnwrfc.dll
 0002:000002a0       __imp_RfcGetParameterDescByIndex 00000001800162a0     sapnwrfc:sapnwrfc.dll
 0002:000002a8       __imp_RfcSetTime           00000001800162a8     sapnwrfc:sapnwrfc.dll
 0002:000002b0       __imp_RfcSetBytes          00000001800162b0     sapnwrfc:sapnwrfc.dll
 0002:000002b8       __imp_RfcSetInt1           00000001800162b8     sapnwrfc:sapnwrfc.dll
 0002:000002c0       __imp_RfcGetDate           00000001800162c0     sapnwrfc:sapnwrfc.dll
 0002:000002c8       __imp_RfcMoveTo            00000001800162c8     sapnwrfc:sapnwrfc.dll
 0002:000002d0       __imp_RfcGetBytes          00000001800162d0     sapnwrfc:sapnwrfc.dll
 0002:000002d8       __imp_RfcGetFieldDescByIndex 00000001800162d8     sapnwrfc:sapnwrfc.dll
 0002:000002e0       __imp_RfcGetInt1           00000001800162e0     sapnwrfc:sapnwrfc.dll
 0002:000002e8       __imp_RfcGetCurrentRow     00000001800162e8     sapnwrfc:sapnwrfc.dll
 0002:000002f0       __imp_RfcGetRowCount       00000001800162f0     sapnwrfc:sapnwrfc.dll
 0002:000002f8       __imp_RfcSetString         00000001800162f8     sapnwrfc:sapnwrfc.dll
 0002:00000300       __imp_RfcGetChars          0000000180016300     sapnwrfc:sapnwrfc.dll
 0002:00000308       __imp_RfcGetTable          0000000180016308     sapnwrfc:sapnwrfc.dll
 0002:00000310       __imp_RfcGetStringLength   0000000180016310     sapnwrfc:sapnwrfc.dll
 0002:00000318       __imp_RfcSetDate           0000000180016318     sapnwrfc:sapnwrfc.dll
 0002:00000320       __imp_RfcSetXString        0000000180016320     sapnwrfc:sapnwrfc.dll
 0002:00000328       __imp_RfcGetInt2           0000000180016328     sapnwrfc:sapnwrfc.dll
 0002:00000330       __imp_RfcSetInt2           0000000180016330     sapnwrfc:sapnwrfc.dll
 0002:00000338       __imp_RfcGetInt            0000000180016338     sapnwrfc:sapnwrfc.dll
 0002:00000340       __imp_RfcSetInt            0000000180016340     sapnwrfc:sapnwrfc.dll
 0002:00000348       __imp_RfcSetChars          0000000180016348     sapnwrfc:sapnwrfc.dll
 0002:00000350       __imp_RfcGetStructure      0000000180016350     sapnwrfc:sapnwrfc.dll
 0002:00000358       __imp_RfcGetXString        0000000180016358     sapnwrfc:sapnwrfc.dll
 0002:00000360       __imp_RfcSAPUCToUTF8       0000000180016360     sapnwrfc:sapnwrfc.dll
 0002:00000368       __imp_RfcGetFieldCount     0000000180016368     sapnwrfc:sapnwrfc.dll
 0002:00000370       __imp_RfcGetFloat          0000000180016370     sapnwrfc:sapnwrfc.dll
 0002:00000378       __imp_RfcGetParameterCount 0000000180016378     sapnwrfc:sapnwrfc.dll
 0002:00000380       __imp_RfcUTF8ToSAPUC       0000000180016380     sapnwrfc:sapnwrfc.dll
 0002:00000388       __imp_RfcSetNum            0000000180016388     sapnwrfc:sapnwrfc.dll
 0002:00000390       __imp_RfcGetNum            0000000180016390     sapnwrfc:sapnwrfc.dll
 0002:00000398       __imp_RfcSetFloat          0000000180016398     sapnwrfc:sapnwrfc.dll
 0002:000003a0       __imp_RfcGetTime           00000001800163a0     sapnwrfc:sapnwrfc.dll
 0002:000003a8       __imp_RfcGetParameterDescByName 00000001800163a8     sapnwrfc:sapnwrfc.dll
 0002:000003b0       __imp_RfcGetString         00000001800163b0     sapnwrfc:sapnwrfc.dll
 0002:000003b8       __imp_RfcAppendNewRow      00000001800163b8     sapnwrfc:sapnwrfc.dll
 0002:000003c0       __imp_RfcGetFieldDescByName 00000001800163c0     sapnwrfc:sapnwrfc.dll
 0002:000003c8       \177sapnwrfc_NULL_THUNK_DATA 00000001800163c8     sapnwrfc:sapnwrfc.dll
 0002:000003d0       __guard_check_icall_fptr   00000001800163d0     LIBCMT:guard_support.obj
 0002:000003d8       __guard_dispatch_icall_fptr 00000001800163d8     LIBCMT:guard_support.obj
 0002:000003e0       __xc_a                     00000001800163e0     LIBCMT:initializers.obj
 0002:000003f0       _register_rfc_             00000001800163f0     rfc.obj
 0002:000003f8       __xc_z                     00000001800163f8     LIBCMT:initializers.obj
 0002:00000400       __xi_a                     0000000180016400     LIBCMT:initializers.obj
 0002:00000410       __acrt_stdio_initializer   0000000180016410     libucrt:stdio_initializer.obj
 0002:00000418       __acrt_multibyte_initializer 0000000180016418     libucrt:multibyte_initializer.obj
 0002:00000420       __acrt_tran_fma3_initializer 0000000180016420     libucrt:fma3_initializer.obj
 0002:00000428       __xi_z                     0000000180016428     LIBCMT:initializers.obj
 0002:00000430       __xl_a                     0000000180016430     LIBCMT:tlssup.obj
 0002:00000438       __xl_z                     0000000180016438     LIBCMT:tlssup.obj
 0002:00000440       __xp_a                     0000000180016440     LIBCMT:initializers.obj
 0002:00000448       __acrt_locale_terminator   0000000180016448     libucrt:locale_initializer.obj
 0002:00000450       __dcrt_console_output_terminator 0000000180016450     libucrt:console_output_initializer.obj
 0002:00000458       __acrt_stdio_terminator    0000000180016458     libucrt:stdio_initializer.obj
 0002:00000460       __xp_z                     0000000180016460     LIBCMT:initializers.obj
 0002:00000468       __xt_a                     0000000180016468     LIBCMT:initializers.obj
 0002:00000470       __xt_z                     0000000180016470     LIBCMT:initializers.obj
 0002:00000480       __sz_node_exe              0000000180016480     node:node.exe
 0002:00000498       ??_7exception@std@@6B@     0000000180016498     libcpmt:xthrow.obj
 0002:000004a8       ??_C@_0BC@EOODALEL@Unknown?5exception?$AA@ 00000001800164a8     libcpmt:xthrow.obj
 0002:000004c8       ??_7bad_alloc@std@@6B@     00000001800164c8     libcpmt:xthrow.obj
 0002:000004d8       ??_C@_0P@GHFPNOJB@bad?5allocation?$AA@ 00000001800164d8     libcpmt:xthrow.obj
 0002:000004f0       ??_7logic_error@std@@6B@   00000001800164f0     libcpmt:xthrow.obj
 0002:00000508       ??_7length_error@std@@6B@  0000000180016508     libcpmt:xthrow.obj
 0002:00000520       ??_7out_of_range@std@@6B@  0000000180016520     libcpmt:xthrow.obj
 0002:00000530       ??_C@_1BK@MGMFAEKH@?$AAk?$AAe?$AAr?$AAn?$AAe?$AAl?$AA3?$AA2?$AA?4?$AAd?$AAl?$AAl?$AA?$AA@ 0000000180016530     LIBCMT:thread_safe_statics.obj
 0002:00000550       ??_C@_0BM@HLJJNPAH@InitializeConditionVariable?$AA@ 0000000180016550     LIBCMT:thread_safe_statics.obj
 0002:00000570       ??_C@_0BJ@JEBJOJFJ@SleepConditionVariableCS?$AA@ 0000000180016570     LIBCMT:thread_safe_statics.obj
 0002:00000590       ??_C@_0BJ@PGPPEPCC@WakeAllConditionVariable?$AA@ 0000000180016590     LIBCMT:thread_safe_statics.obj
 0002:000005b0       _pDefaultRawDllMain        00000001800165b0     LIBCMT:dll_dllmain.obj
 0002:000005b0       _pRawDllMain               00000001800165b0     LIBCMT:dll_dllmain.obj
 0002:000005c0       ??_7type_info@@6B@         00000001800165c0     LIBCMT:std_type_info_static.obj
 0002:000005e0       ??_7bad_array_new_length@std@@6B@ 00000001800165e0     LIBCMT:throw_bad_alloc.obj
 0002:000005f0       ??_C@_0BF@KINCDENJ@bad?5array?5new?5length?$AA@ 00000001800165f0     LIBCMT:throw_bad_alloc.obj
 0002:00000670       ??_C@_1BC@DNHGCMLG@?$AAa?$AAd?$AAv?$AAa?$AAp?$AAi?$AA3?$AA2?$AA?$AA@ 0000000180016670     libvcruntime:winapi_downlevel.obj
 0002:00000688       ??_C@_1DM@KHCHBNEB@?$AAa?$AAp?$AAi?$AA?9?$AAm?$AAs?$AA?9?$AAw?$AAi?$AAn?$AA?9?$AAc?$AAo?$AAr?$AAe?$AA?9?$AAf?$AAi?$AAb?$AAe?$AAr?$AAs?$AA?9?$AAl?$AA1?$AA?9?$AA1?$AA?9?$AA1?$AA?$AA@ 0000000180016688     libvcruntime:winapi_downlevel.obj
 0002:000006c8       ??_C@_1DK@LPPGFMPP@?$AAa?$AAp?$AAi?$AA?9?$AAm?$AAs?$AA?9?$AAw?$AAi?$AAn?$AA?9?$AAc?$AAo?$AAr?$AAe?$AA?9?$AAs?$AAy?$AAn?$AAc?$AAh?$AA?9?$AAl?$AA1?$AA?9?$AA2?$AA?9?$AA0?$AA?$AA@ 00000001800166c8     libvcruntime:winapi_downlevel.obj
 0002:00000708       ??_C@_1BC@GDMECMAK@?$AAk?$AAe?$AAr?$AAn?$AAe?$AAl?$AA3?$AA2?$AA?$AA@ 0000000180016708     libvcruntime:winapi_downlevel.obj
 0002:00000720       ??_C@_0O@BAMBGLIE@EventRegister?$AA@ 0000000180016720     libvcruntime:winapi_downlevel.obj
 0002:00000738       ??_C@_0BE@BJEEGHGK@EventSetInformation?$AA@ 0000000180016738     libvcruntime:winapi_downlevel.obj
 0002:00000750       ??_C@_0BA@FAKLIPIC@EventUnregister?$AA@ 0000000180016750     libvcruntime:winapi_downlevel.obj
 0002:00000768       ??_C@_0BD@PKLHJPHD@EventWriteTransfer?$AA@ 0000000180016768     libvcruntime:winapi_downlevel.obj
 0002:00000788       ??_C@_08KNHFBNJ@FlsAlloc?$AA@ 0000000180016788     libvcruntime:winapi_downlevel.obj
 0002:000007a0       ??_C@_07PEJMOBNF@FlsFree?$AA@ 00000001800167a0     libvcruntime:winapi_downlevel.obj
 0002:000007b0       ??_C@_0M@GDNOONDI@FlsGetValue?$AA@ 00000001800167b0     libvcruntime:winapi_downlevel.obj
 0002:000007c8       ??_C@_0M@JCPCPOEF@FlsSetValue?$AA@ 00000001800167c8     libvcruntime:winapi_downlevel.obj
 0002:000007e0       ??_C@_0BM@HCFOFFN@InitializeCriticalSectionEx?$AA@ 00000001800167e0     libvcruntime:winapi_downlevel.obj
 0002:00000800       _Microsoft_CRTProvider     0000000180016800     libvcruntime:telemetry.obj
 0002:00000808       ??_C@_11LOCGONAA@?$AA?$AA@ 0000000180016808     libvcruntime:telemetry.obj
 0002:00000810       ??_C@_0O@JEOPJOMI@Main?5Invoked?4?$AA@ 0000000180016810     libvcruntime:telemetry.obj
 0002:00000820       ??_C@_0P@NEAEIBDO@Main?5Returned?4?$AA@ 0000000180016820     libvcruntime:telemetry.obj
 0002:00000830       ??_C@_01JOAMLHOP@?9?$AA@   0000000180016830     libvcruntime:undname.obj
 0002:00000834       ??_C@_01MIFGBAGJ@?$CL?$AA@ 0000000180016834     libvcruntime:undname.obj
 0002:00000838       ??_C@_01HNPIGOCE@?$CG?$AA@ 0000000180016838     libvcruntime:undname.obj
 0002:0000083c       ??_C@_03MNHNFDLC@?9?$DO?$CK?$AA@ 000000018001683c     libvcruntime:undname.obj
 0002:00000840       ??_C@_01KMDKNFGN@?1?$AA@   0000000180016840     libvcruntime:undname.obj
 0002:00000844       ??_C@_01FGNFDNOH@?$CF?$AA@ 0000000180016844     libvcruntime:undname.obj
 0002:00000848       ??_C@_01MNNFJEPP@?$DM?$AA@ 0000000180016848     libvcruntime:undname.obj
 0002:0000084c       ??_C@_02EHCHHCKH@?$DM?$DN?$AA@ 000000018001684c     libvcruntime:undname.obj
 0002:00000850       ??_C@_01PPODPGHN@?$DO?$AA@ 0000000180016850     libvcruntime:undname.obj
 0002:00000854       ??_C@_02EEKDKGMJ@?$DO?$DN?$AA@ 0000000180016854     libvcruntime:undname.obj
 0002:00000858       ??_C@_01IHBHIGKO@?0?$AA@   0000000180016858     libvcruntime:undname.obj
 0002:0000085c       ??_C@_02HCKGKOFO@?$CI?$CJ?$AA@ 000000018001685c     libvcruntime:undname.obj
 0002:00000860       ??_C@_01PJKLJHI@?$HO?$AA@  0000000180016860     libvcruntime:undname.obj
 0002:00000864       ??_C@_01JKBOJNNK@?$FO?$AA@ 0000000180016864     libvcruntime:undname.obj
 0002:00000868       ??_C@_01DNKMNLPK@?$HM?$AA@ 0000000180016868     libvcruntime:undname.obj
 0002:0000086c       ??_C@_02PPKAJPJL@?$CG?$CG?$AA@ 000000018001686c     libvcruntime:undname.obj
 0002:00000870       ??_C@_02NONPIBCD@?$HM?$HM?$AA@ 0000000180016870     libvcruntime:undname.obj
 0002:00000874       ??_C@_02FPIMKNGF@?$CK?$DN?$AA@ 0000000180016874     libvcruntime:undname.obj
 0002:00000878       ??_C@_02FOEOMHFC@?$CL?$DN?$AA@ 0000000180016878     libvcruntime:undname.obj
 0002:0000087c       ??_C@_02FKMDLLOA@?9?$DN?$AA@ 000000018001687c     libvcruntime:undname.obj
 0002:00000880       ??_C@_02FJEHGPIO@?1?$DN?$AA@ 0000000180016880     libvcruntime:undname.obj
 0002:00000884       ??_C@_02FENAOKFI@?$CF?$DN?$AA@ 0000000180016884     libvcruntime:undname.obj
 0002:00000888       ??_C@_03IKFCCPFF@?$DO?$DO?$DN?$AA@ 0000000180016888     libvcruntime:undname.obj
 0002:0000088c       ??_C@_03CDNPDDLA@?$DM?$DM?$DN?$AA@ 000000018001688c     libvcruntime:undname.obj
 0002:00000890       ??_C@_02FGJGFEAB@?$CG?$DN?$AA@ 0000000180016890     libvcruntime:undname.obj
 0002:00000894       ??_C@_02DHLNPPGH@?$HM?$DN?$AA@ 0000000180016894     libvcruntime:undname.obj
 0002:00000898       ??_C@_02MHEGNOJ@?$FO?$DN?$AA@ 0000000180016898     libvcruntime:undname.obj
 0002:000008a0       ??_C@_09IFPLHPGF@?$GAvftable?8?$AA@ 00000001800168a0     libvcruntime:undname.obj
 0002:000008b0       ??_C@_09BLBHBJP@?$GAvbtable?8?$AA@ 00000001800168b0     libvcruntime:undname.obj
 0002:000008c0       ??_C@_07FEEIOKP@?$GAvcall?8?$AA@ 00000001800168c0     libvcruntime:undname.obj
 0002:000008c8       ??_C@_08LLFFHHDJ@?$GAtypeof?8?$AA@ 00000001800168c8     libvcruntime:undname.obj
 0002:000008d8       ??_C@_0BF@KDPPACIK@?$GAlocal?5static?5guard?8?$AA@ 00000001800168d8     libvcruntime:undname.obj
 0002:000008f0       ??_C@_08OBABFOLI@?$GAstring?8?$AA@ 00000001800168f0     libvcruntime:undname.obj
 0002:00000900       ??_C@_0BD@JDLKDPAB@?$GAvbase?5destructor?8?$AA@ 0000000180016900     libvcruntime:undname.obj
 0002:00000918       ??_C@_0BN@DEGPLNFK@?$GAvector?5deleting?5destructor?8?$AA@ 0000000180016918     libvcruntime:undname.obj
 0002:00000938       ??_C@_0BO@OBMKPJIG@?$GAdefault?5constructor?5closure?8?$AA@ 0000000180016938     libvcruntime:undname.obj
 0002:00000958       ??_C@_0BN@IMDCHIKM@?$GAscalar?5deleting?5destructor?8?$AA@ 0000000180016958     libvcruntime:undname.obj
 0002:00000978       ??_C@_0BO@PFGOCPJJ@?$GAvector?5constructor?5iterator?8?$AA@ 0000000180016978     libvcruntime:undname.obj
 0002:00000998       ??_C@_0BN@LFPFMEDL@?$GAvector?5destructor?5iterator?8?$AA@ 0000000180016998     libvcruntime:undname.obj
 0002:000009b8       ??_C@_0CE@IKBNEHA@?$GAvector?5vbase?5constructor?5iterat@ 00000001800169b8     libvcruntime:undname.obj
 0002:000009e0       ??_C@_0BL@NILFHHPC@?$GAvirtual?5displacement?5map?8?$AA@ 00000001800169e0     libvcruntime:undname.obj
 0002:00000a00       ??_C@_0CB@JONCMFFK@?$GAeh?5vector?5constructor?5iterator?8@ 0000000180016a00     libvcruntime:undname.obj
 0002:00000a28       ??_C@_0CA@GCEOPDGL@?$GAeh?5vector?5destructor?5iterator?8?$AA@ 0000000180016a28     libvcruntime:undname.obj
 0002:00000a48       ??_C@_0CH@OOJPLCPH@?$GAeh?5vector?5vbase?5constructor?5ite@ 0000000180016a48     libvcruntime:undname.obj
 0002:00000a70       ??_C@_0BL@LLKPOHJI@?$GAcopy?5constructor?5closure?8?$AA@ 0000000180016a70     libvcruntime:undname.obj
 0002:00000a90       ??_C@_0BA@KBCDOMBN@?$GAudt?5returning?8?$AA@ 0000000180016a90     libvcruntime:undname.obj
 0002:00000aa0       ??_C@_03KLGMFNMG@?$GAEH?$AA@ 0000000180016aa0     libvcruntime:undname.obj
 0002:00000aa4       ??_C@_05KHLCHHI@?$GARTTI?$AA@ 0000000180016aa4     libvcruntime:undname.obj
 0002:00000ab0       ??_C@_0BA@KKLDJDLB@?$GAlocal?5vftable?8?$AA@ 0000000180016ab0     libvcruntime:undname.obj
 0002:00000ac0       ??_C@_0CE@IIHCMGGL@?$GAlocal?5vftable?5constructor?5closu@ 0000000180016ac0     libvcruntime:undname.obj
 0002:00000ae4       ??_C@_06FHBGPFGH@?5new?$FL?$FN?$AA@ 0000000180016ae4     libvcruntime:undname.obj
 0002:00000af0       ??_C@_09LBNFPBCA@?5delete?$FL?$FN?$AA@ 0000000180016af0     libvcruntime:undname.obj
 0002:00000b00       ??_C@_0P@HJKNJFNN@?$GAomni?5callsig?8?$AA@ 0000000180016b00     libvcruntime:undname.obj
 0002:00000b10       ??_C@_0BL@CNOONJFP@?$GAplacement?5delete?5closure?8?$AA@ 0000000180016b10     libvcruntime:undname.obj
 0002:00000b30       ??_C@_0BN@CKNJLHMB@?$GAplacement?5delete?$FL?$FN?5closure?8?$AA@ 0000000180016b30     libvcruntime:undname.obj
 0002:00000b50       ??_C@_0CG@CFDHKGGD@?$GAmanaged?5vector?5constructor?5iter@ 0000000180016b50     libvcruntime:undname.obj
 0002:00000b78       ??_C@_0CF@IMGKMJNO@?$GAmanaged?5vector?5destructor?5itera@ 0000000180016b78     libvcruntime:undname.obj
 0002:00000ba0       ??_C@_0CG@HLDDJMAG@?$GAeh?5vector?5copy?5constructor?5iter@ 0000000180016ba0     libvcruntime:undname.obj
 0002:00000bc8       ??_C@_0CM@FCBBDIGB@?$GAeh?5vector?5vbase?5copy?5constructo@ 0000000180016bc8     libvcruntime:undname.obj
 0002:00000bf8       ??_C@_0BL@CLIPGLGB@?$GAdynamic?5initializer?5for?5?8?$AA@ 0000000180016bf8     libvcruntime:undname.obj
 0002:00000c18       ??_C@_0CB@PDBIFEP@?$GAdynamic?5atexit?5destructor?5for?5?8@ 0000000180016c18     libvcruntime:undname.obj
 0002:00000c40       ??_C@_0CD@CGAJBKEJ@?$GAvector?5copy?5constructor?5iterato@ 0000000180016c40     libvcruntime:undname.obj
 0002:00000c68       ??_C@_0CJ@GJELGAMM@?$GAvector?5vbase?5copy?5constructor?5i@ 0000000180016c68     libvcruntime:undname.obj
 0002:00000c98       ??_C@_0CL@FGIJHLCE@?$GAmanaged?5vector?5copy?5constructor@ 0000000180016c98     libvcruntime:undname.obj
 0002:00000cc8       ??_C@_0BM@PMGGMLDN@?$GAlocal?5static?5thread?5guard?8?$AA@ 0000000180016cc8     libvcruntime:undname.obj
 0002:00000ce8       ??_C@_0N@BDNMDMOL@operator?5?$CC?$CC?5?$AA@ 0000000180016ce8     libvcruntime:undname.obj
 0002:00001028       ??_C@_0BC@DAFEJGAK@?5Type?5Descriptor?8?$AA@ 0000000180017028     libvcruntime:undname.obj
 0002:00001040       ??_C@_0BM@LDKODKLH@?5Base?5Class?5Descriptor?5at?5?$CI?$AA@ 0000000180017040     libvcruntime:undname.obj
 0002:00001060       ??_C@_0BD@LGICGFMM@?5Base?5Class?5Array?8?$AA@ 0000000180017060     libvcruntime:undname.obj
 0002:00001078       ??_C@_0BN@MECKDCOJ@?5Class?5Hierarchy?5Descriptor?8?$AA@ 0000000180017078     libvcruntime:undname.obj
 0002:00001098       ??_C@_0BK@CFCOFLF@?5Complete?5Object?5Locator?8?$AA@ 0000000180017098     libvcruntime:undname.obj
 0002:000010b8       ??_C@_08EHJDFFNH@__based?$CI?$AA@ 00000001800170b8     libvcruntime:undname.obj
 0002:000010c8       ??_C@_07KOLFKCDI@__cdecl?$AA@ 00000001800170c8     libvcruntime:undname.obj
 0002:000010d0       ??_C@_08GHMPAG@__pascal?$AA@ 00000001800170d0     libvcruntime:undname.obj
 0002:000010e0       ??_C@_09IFJBGAPI@__stdcall?$AA@ 00000001800170e0     libvcruntime:undname.obj
 0002:000010f0       ??_C@_0L@NPHFGOKO@__thiscall?$AA@ 00000001800170f0     libvcruntime:undname.obj
 0002:00001100       ??_C@_0L@JMKHOMEK@__fastcall?$AA@ 0000000180017100     libvcruntime:undname.obj
 0002:00001110       ??_C@_0N@BCKKPABJ@__vectorcall?$AA@ 0000000180017110     libvcruntime:undname.obj
 0002:00001120       ??_C@_09HIJEGCPM@__clrcall?$AA@ 0000000180017120     libvcruntime:undname.obj
 0002:0000112c       ??_C@_06GHPCKEAG@__eabi?$AA@ 000000018001712c     libvcruntime:undname.obj
 0002:00001138       ??_C@_07JOMMBBKO@__ptr64?$AA@ 0000000180017138     libvcruntime:undname.obj
 0002:00001140       ??_C@_0L@PILCLIHE@__restrict?$AA@ 0000000180017140     libvcruntime:undname.obj
 0002:00001150       ??_C@_0M@GFIIJFMG@__unaligned?$AA@ 0000000180017150     libvcruntime:undname.obj
 0002:00001160       ??_C@_09DHDLOLLB@restrict?$CI?$AA@ 0000000180017160     libvcruntime:undname.obj
 0002:0000116c       ??_C@_04NIHEBCM@?5new?$AA@ 000000018001716c     libvcruntime:undname.obj
 0002:00001178       ??_C@_07FPCDHGMM@?5delete?$AA@ 0000000180017178     libvcruntime:undname.obj
 0002:00001180       ??_C@_01NEMOKFLO@?$DN?$AA@ 0000000180017180     libvcruntime:undname.obj
 0002:00001184       ??_C@_02GPIOPFAK@?$DO?$DO?$AA@ 0000000180017184     libvcruntime:undname.obj
 0002:00001188       ??_C@_02FODMEDOG@?$DM?$DM?$AA@ 0000000180017188     libvcruntime:undname.obj
 0002:0000118c       ??_C@_01DCLJPIOD@?$CB?$AA@ 000000018001718c     libvcruntime:undname.obj
 0002:00001190       ??_C@_02EGOFBIJA@?$DN?$DN?$AA@ 0000000180017190     libvcruntime:undname.obj
 0002:00001194       ??_C@_02FDNJECIE@?$CB?$DN?$AA@ 0000000180017194     libvcruntime:undname.obj
 0002:00001198       ??_C@_02GPECMEKF@?$FL?$FN?$AA@ 0000000180017198     libvcruntime:undname.obj
 0002:000011a0       ??_C@_08LHJFAFGD@operator?$AA@ 00000001800171a0     libvcruntime:undname.obj
 0002:000011ac       ??_C@_02HBOOOICD@?9?$DO?$AA@ 00000001800171ac     libvcruntime:undname.obj
 0002:000011b0       ??_C@_01NBENCBCI@?$CK?$AA@ 00000001800171b0     libvcruntime:undname.obj
 0002:000011b4       ??_C@_02ECNGHCIF@?$CL?$CL?$AA@ 00000001800171b4     libvcruntime:undname.obj
 0002:000011b8       ??_C@_02BAABKJLB@?9?9?$AA@ 00000001800171b8     libvcruntime:undname.obj
 0002:000011c0       standard_lookup_table      00000001800171c0     libucrt:output.obj
 0002:0000121c       ??_C@_06OJHGLDPL@?$CInull?$CJ?$AA@ 000000018001721c     libucrt:output.obj
 0002:00001228       ??_C@_1O@CEDCILHN@?$AA?$CI?$AAn?$AAu?$AAl?$AAl?$AA?$CJ?$AA?$AA@ 0000000180017228     libucrt:output.obj
 0002:00001240       __acrt_exception_action_table 0000000180017240     libucrt:exception_filter.obj
 0002:00001300       __acrt_signal_action_table_count 0000000180017300     libucrt:exception_filter.obj
 0002:00001308       __acrt_signal_action_first_fpe_index 0000000180017308     libucrt:exception_filter.obj
 0002:00001310       __acrt_signal_action_fpe_count 0000000180017310     libucrt:exception_filter.obj
 0002:00001318       ??_C@_1BI@BGOHAHKC@?$AAm?$AAs?$AAc?$AAo?$AAr?$AAe?$AAe?$AA?4?$AAd?$AAl?$AAl?$AA?$AA@ 0000000180017318     libucrt:exit.obj
 0002:00001330       ??_C@_0P@MIGLKIOC@CorExitProcess?$AA@ 0000000180017330     libucrt:exit.obj
 0002:00001598       ??_C@_03OEIAHPBN@INF?$AA@  0000000180017598     libucrt:cvt.obj
 0002:0000159c       ??_C@_03OJHLLCGB@inf?$AA@  000000018001759c     libucrt:cvt.obj
 0002:000015a0       ??_C@_03LKNCIKJB@NAN?$AA@  00000001800175a0     libucrt:cvt.obj
 0002:000015a4       ??_C@_03LHCJEHON@nan?$AA@  00000001800175a4     libucrt:cvt.obj
 0002:000015a8       ??_C@_09OFJJIMPC@NAN?$CISNAN?$CJ?$AA@ 00000001800175a8     libucrt:cvt.obj
 0002:000015b8       ??_C@_09IPFBKMDL@nan?$CIsnan?$CJ?$AA@ 00000001800175b8     libucrt:cvt.obj
 0002:000015c8       ??_C@_08IKHNHAJ@NAN?$CIIND?$CJ?$AA@ 00000001800175c8     libucrt:cvt.obj
 0002:000015d8       ??_C@_08OFCDMILK@nan?$CIind?$CJ?$AA@ 00000001800175d8     libucrt:cvt.obj
 0002:000015e4       ??_C@_05KLBDPFGC@e?$CL000?$AA@ 00000001800175e4     libucrt:cvt.obj
 0002:000015f0       __lc_time_c                00000001800175f0     libucrt:nlsdata.obj
 0002:000018b0       ??_C@_03KOEHGMDN@Sun?$AA@  00000001800178b0     libucrt:nlsdata.obj
 0002:000018b4       ??_C@_03PDAGKDH@Mon?$AA@   00000001800178b4     libucrt:nlsdata.obj
 0002:000018b8       ??_C@_03NAGEINEP@Tue?$AA@  00000001800178b8     libucrt:nlsdata.obj
 0002:000018bc       ??_C@_03MHOMLAJA@Wed?$AA@  00000001800178bc     libucrt:nlsdata.obj
 0002:000018c0       ??_C@_03IOFIKPDN@Thu?$AA@  00000001800178c0     libucrt:nlsdata.obj
 0002:000018c4       ??_C@_03IDIOELNC@Fri?$AA@  00000001800178c4     libucrt:nlsdata.obj
 0002:000018c8       ??_C@_03FEFJNEK@Sat?$AA@   00000001800178c8     libucrt:nlsdata.obj
 0002:000018cc       ??_C@_06OOPIFAJ@Sunday?$AA@ 00000001800178cc     libucrt:nlsdata.obj
 0002:000018d4       ??_C@_06JLEDEDGH@Monday?$AA@ 00000001800178d4     libucrt:nlsdata.obj
 0002:000018e0       ??_C@_07BAAGCFCM@Tuesday?$AA@ 00000001800178e0     libucrt:nlsdata.obj
 0002:000018e8       ??_C@_09DLIGFAKA@Wednesday?$AA@ 00000001800178e8     libucrt:nlsdata.obj
 0002:000018f8       ??_C@_08HACCIKIA@Thursday?$AA@ 00000001800178f8     libucrt:nlsdata.obj
 0002:00001904       ??_C@_06JECMNKMI@Friday?$AA@ 0000000180017904     libucrt:nlsdata.obj
 0002:00001910       ??_C@_08INBOOONO@Saturday?$AA@ 0000000180017910     libucrt:nlsdata.obj
 0002:0000191c       ??_C@_03JIHJHPIE@Jan?$AA@  000000018001791c     libucrt:nlsdata.obj
 0002:00001920       ??_C@_03HJBDCHOM@Feb?$AA@  0000000180017920     libucrt:nlsdata.obj
 0002:00001924       ??_C@_03ODNJBKGA@Mar?$AA@  0000000180017924     libucrt:nlsdata.obj
 0002:00001928       ??_C@_03LEOLGMJP@Apr?$AA@  0000000180017928     libucrt:nlsdata.obj
 0002:0000192c       ??_C@_03CNMDKL@May?$AA@    000000018001792c     libucrt:nlsdata.obj
 0002:00001930       ??_C@_03IDFGHECI@Jun?$AA@  0000000180017930     libucrt:nlsdata.obj
 0002:00001934       ??_C@_03LBGABGKK@Jul?$AA@  0000000180017934     libucrt:nlsdata.obj
 0002:00001938       ??_C@_03IFJFEIGA@Aug?$AA@  0000000180017938     libucrt:nlsdata.obj
 0002:0000193c       ??_C@_03GGCAPAJC@Sep?$AA@  000000018001793c     libucrt:nlsdata.obj
 0002:00001940       ??_C@_03BMAOKBAD@Oct?$AA@  0000000180017940     libucrt:nlsdata.obj
 0002:00001944       ??_C@_03JPJOFNIA@Nov?$AA@  0000000180017944     libucrt:nlsdata.obj
 0002:00001948       ??_C@_03MKABNOCG@Dec?$AA@  0000000180017948     libucrt:nlsdata.obj
 0002:00001950       ??_C@_07CGJPFGJA@January?$AA@ 0000000180017950     libucrt:nlsdata.obj
 0002:00001958       ??_C@_08GNJGEPFN@February?$AA@ 0000000180017958     libucrt:nlsdata.obj
 0002:00001964       ??_C@_05HPCKOFNC@March?$AA@ 0000000180017964     libucrt:nlsdata.obj
 0002:0000196c       ??_C@_05DMJDNLEJ@April?$AA@ 000000018001796c     libucrt:nlsdata.obj
 0002:00001974       ??_C@_04CNLMGBGM@June?$AA@ 0000000180017974     libucrt:nlsdata.obj
 0002:0000197c       ??_C@_04MIEPOIFP@July?$AA@ 000000018001797c     libucrt:nlsdata.obj
 0002:00001984       ??_C@_06LBBHFDDG@August?$AA@ 0000000180017984     libucrt:nlsdata.obj
 0002:00001990       ??_C@_09BHHEALKD@September?$AA@ 0000000180017990     libucrt:nlsdata.obj
 0002:000019a0       ??_C@_07JJNFCEND@October?$AA@ 00000001800179a0     libucrt:nlsdata.obj
 0002:000019a8       ??_C@_08HCHEGEOA@November?$AA@ 00000001800179a8     libucrt:nlsdata.obj
 0002:000019b8       ??_C@_08EDHMEBNP@December?$AA@ 00000001800179b8     libucrt:nlsdata.obj
 0002:000019c4       ??_C@_02DEDBPAFC@AM?$AA@   00000001800179c4     libucrt:nlsdata.obj
 0002:000019c8       ??_C@_02CJNFDJBF@PM?$AA@   00000001800179c8     libucrt:nlsdata.obj
 0002:000019d0       ??_C@_08BPBNCDIB@MM?1dd?1yy?$AA@ 00000001800179d0     libucrt:nlsdata.obj
 0002:000019e0       ??_C@_0BE@CKGJFCPC@dddd?0?5MMMM?5dd?0?5yyyy?$AA@ 00000001800179e0     libucrt:nlsdata.obj
 0002:000019f8       ??_C@_08JCCMCCIL@HH?3mm?3ss?$AA@ 00000001800179f8     libucrt:nlsdata.obj
 0002:00001a08       ??_C@_17MBGCMIPB@?$AAS?$AAu?$AAn?$AA?$AA@ 0000000180017a08     libucrt:nlsdata.obj
 0002:00001a10       ??_C@_17KBOMKBF@?$AAM?$AAo?$AAn?$AA?$AA@ 0000000180017a10     libucrt:nlsdata.obj
 0002:00001a18       ??_C@_17BMKGEGOJ@?$AAT?$AAu?$AAe?$AA?$AA@ 0000000180017a18     libucrt:nlsdata.obj
 0002:00001a20       ??_C@_17CJEDCEPE@?$AAW?$AAe?$AAd?$AA?$AA@ 0000000180017a20     libucrt:nlsdata.obj
 0002:00001a28       ??_C@_17PDPHAADD@?$AAT?$AAh?$AAu?$AA?$AA@ 0000000180017a28     libucrt:nlsdata.obj
 0002:00001a30       ??_C@_17HFOLPPLP@?$AAF?$AAr?$AAi?$AA?$AA@ 0000000180017a30     libucrt:nlsdata.obj
 0002:00001a38       ??_C@_17GGIBDPIH@?$AAS?$AAa?$AAt?$AA?$AA@ 0000000180017a38     libucrt:nlsdata.obj
 0002:00001a40       ??_C@_1O@IHNHDHPB@?$AAS?$AAu?$AAn?$AAd?$AAa?$AAy?$AA?$AA@ 0000000180017a40     libucrt:nlsdata.obj
 0002:00001a50       ??_C@_1O@MMNBFLIA@?$AAM?$AAo?$AAn?$AAd?$AAa?$AAy?$AA?$AA@ 0000000180017a50     libucrt:nlsdata.obj
 0002:00001a60       ??_C@_1BA@ENFBFFEK@?$AAT?$AAu?$AAe?$AAs?$AAd?$AAa?$AAy?$AA?$AA@ 0000000180017a60     libucrt:nlsdata.obj
 0002:00001a70       ??_C@_1BE@EBOGMDOH@?$AAW?$AAe?$AAd?$AAn?$AAe?$AAs?$AAd?$AAa?$AAy?$AA?$AA@ 0000000180017a70     libucrt:nlsdata.obj
 0002:00001a88       ??_C@_1BC@HHMNLIHE@?$AAT?$AAh?$AAu?$AAr?$AAs?$AAd?$AAa?$AAy?$AA?$AA@ 0000000180017a88     libucrt:nlsdata.obj
 0002:00001aa0       ??_C@_1O@PDICJHAG@?$AAF?$AAr?$AAi?$AAd?$AAa?$AAy?$AA?$AA@ 0000000180017aa0     libucrt:nlsdata.obj
 0002:00001ab0       ??_C@_1BC@ENMNNPAJ@?$AAS?$AAa?$AAt?$AAu?$AAr?$AAd?$AAa?$AAy?$AA?$AA@ 0000000180017ab0     libucrt:nlsdata.obj
 0002:00001ac8       ??_C@_17DKNBKCHM@?$AAJ?$AAa?$AAn?$AA?$AA@ 0000000180017ac8     libucrt:nlsdata.obj
 0002:00001ad0       ??_C@_17LMDJEKJN@?$AAF?$AAe?$AAb?$AA?$AA@ 0000000180017ad0     libucrt:nlsdata.obj
 0002:00001ad8       ??_C@_17CKNLEDEC@?$AAM?$AAa?$AAr?$AA?$AA@ 0000000180017ad8     libucrt:nlsdata.obj
 0002:00001ae0       ??_C@_17LFPOIHDD@?$AAA?$AAp?$AAr?$AA?$AA@ 0000000180017ae0     libucrt:nlsdata.obj
 0002:00001ae8       ??_C@_17PNNKMEED@?$AAM?$AAa?$AAy?$AA?$AA@ 0000000180017ae8     libucrt:nlsdata.obj
 0002:00001af0       ??_C@_17KCJGOCPB@?$AAJ?$AAu?$AAn?$AA?$AA@ 0000000180017af0     libucrt:nlsdata.obj
 0002:00001af8       ??_C@_17IJPCKHK@?$AAJ?$AAu?$AAl?$AA?$AA@ 0000000180017af8     libucrt:nlsdata.obj
 0002:00001b00       ??_C@_17ICPELBCN@?$AAA?$AAu?$AAg?$AA?$AA@ 0000000180017b00     libucrt:nlsdata.obj
 0002:00001b08       ??_C@_17HCHCOKMG@?$AAS?$AAe?$AAp?$AA?$AA@ 0000000180017b08     libucrt:nlsdata.obj
 0002:00001b10       ??_C@_17FNLKOI@?$AAO?$AAc?$AAt?$AA?$AA@ 0000000180017b10     libucrt:nlsdata.obj
 0002:00001b18       ??_C@_17BBDMLCIG@?$AAN?$AAo?$AAv?$AA?$AA@ 0000000180017b18     libucrt:nlsdata.obj
 0002:00001b20       ??_C@_17EGKACKIF@?$AAD?$AAe?$AAc?$AA?$AA@ 0000000180017b20     libucrt:nlsdata.obj
 0002:00001b28       ??_C@_1BA@EFMEIEBA@?$AAJ?$AAa?$AAn?$AAu?$AAa?$AAr?$AAy?$AA?$AA@ 0000000180017b28     libucrt:nlsdata.obj
 0002:00001b38       ??_C@_1BC@JGDDFFAM@?$AAF?$AAe?$AAb?$AAr?$AAu?$AAa?$AAr?$AAy?$AA?$AA@ 0000000180017b38     libucrt:nlsdata.obj
 0002:00001b50       ??_C@_1M@IKEENEDF@?$AAM?$AAa?$AAr?$AAc?$AAh?$AA?$AA@ 0000000180017b50     libucrt:nlsdata.obj
 0002:00001b60       ??_C@_1M@GJNLMHFD@?$AAA?$AAp?$AAr?$AAi?$AAl?$AA?$AA@ 0000000180017b60     libucrt:nlsdata.obj
 0002:00001b70       ??_C@_19EPFLPGAP@?$AAJ?$AAu?$AAn?$AAe?$AA?$AA@ 0000000180017b70     libucrt:nlsdata.obj
 0002:00001b80       ??_C@_19BIFMLPCD@?$AAJ?$AAu?$AAl?$AAy?$AA?$AA@ 0000000180017b80     libucrt:nlsdata.obj
 0002:00001b90       ??_C@_1O@PAHLKOAC@?$AAA?$AAu?$AAg?$AAu?$AAs?$AAt?$AA?$AA@ 0000000180017b90     libucrt:nlsdata.obj
 0002:00001ba0       ??_C@_1BE@DKAAMBJL@?$AAS?$AAe?$AAp?$AAt?$AAe?$AAm?$AAb?$AAe?$AAr?$AA?$AA@ 0000000180017ba0     libucrt:nlsdata.obj
 0002:00001bb8       ??_C@_1BA@EPANDLNG@?$AAO?$AAc?$AAt?$AAo?$AAb?$AAe?$AAr?$AA?$AA@ 0000000180017bb8     libucrt:nlsdata.obj
 0002:00001bc8       ??_C@_1BC@BGLIFPF@?$AAN?$AAo?$AAv?$AAe?$AAm?$AAb?$AAe?$AAr?$AA?$AA@ 0000000180017bc8     libucrt:nlsdata.obj
 0002:00001be0       ??_C@_1BC@FEMKIFH@?$AAD?$AAe?$AAc?$AAe?$AAm?$AAb?$AAe?$AAr?$AA?$AA@ 0000000180017be0     libucrt:nlsdata.obj
 0002:00001bf4       ??_C@_15ODEHAHHF@?$AAA?$AAM?$AA?$AA@ 0000000180017bf4     libucrt:nlsdata.obj
 0002:00001bfc       ??_C@_15CLMNNGEL@?$AAP?$AAM?$AA?$AA@ 0000000180017bfc     libucrt:nlsdata.obj
 0002:00001c08       ??_C@_1BC@IEBCMHCM@?$AAM?$AAM?$AA?1?$AAd?$AAd?$AA?1?$AAy?$AAy?$AA?$AA@ 0000000180017c08     libucrt:nlsdata.obj
 0002:00001c20       ??_C@_1CI@KNAKOEBC@?$AAd?$AAd?$AAd?$AAd?$AA?0?$AA?5?$AAM?$AAM?$AAM?$AAM?$AA?5?$AAd?$AAd?$AA?0?$AA?5?$AAy?$AAy?$AAy?$AAy?$AA?$AA@ 0000000180017c20     libucrt:nlsdata.obj
 0002:00001c48       ??_C@_1BC@GDGBMEMK@?$AAH?$AAH?$AA?3?$AAm?$AAm?$AA?3?$AAs?$AAs?$AA?$AA@ 0000000180017c48     libucrt:nlsdata.obj
 0002:00001c60       ??_C@_1M@BMHNFIME@?$AAe?$AAn?$AA?9?$AAU?$AAS?$AA?$AA@ 0000000180017c60     libucrt:nlsdata.obj
 0002:00001c70       __newctype                 0000000180017c70     libucrt:ctype.obj
 0002:00001f70       __newclmap                 0000000180017f70     libucrt:ctype.obj
 0002:000020f0       __newcumap                 00000001800180f0     libucrt:ctype.obj
 0002:00002310       ??_C@_1EG@CNNIPFIM@?$AAa?$AAp?$AAi?$AA?9?$AAm?$AAs?$AA?9?$AAw?$AAi?$AAn?$AA?9?$AAa?$AAp?$AAp?$AAm?$AAo?$AAd?$AAe?$AAl?$AA?9?$AAr?$AAu?$AAn?$AAt?$AAi?$AAm?$AAe?$AA?9?$AAl?$AA1?$AA?9?$AA1@ 0000000180018310     libucrt:winapi_thunks.obj
 0002:00002360       ??_C@_1EA@JGEFHKEI@?$AAa?$AAp?$AAi?$AA?9?$AAm?$AAs?$AA?9?$AAw?$AAi?$AAn?$AA?9?$AAc?$AAo?$AAr?$AAe?$AA?9?$AAd?$AAa?$AAt?$AAe?$AAt?$AAi?$AAm?$AAe?$AA?9?$AAl?$AA1?$AA?9?$AA1?$AA?9?$AA1?$AA?$AA@ 0000000180018360     libucrt:winapi_thunks.obj
 0002:000023a0       ??_C@_1DI@GCIAAENM@?$AAa?$AAp?$AAi?$AA?9?$AAm?$AAs?$AA?9?$AAw?$AAi?$AAn?$AA?9?$AAc?$AAo?$AAr?$AAe?$AA?9?$AAf?$AAi?$AAl?$AAe?$AA?9?$AAl?$AA2?$AA?9?$AA1?$AA?9?$AA1?$AA?$AA@ 00000001800183a0     libucrt:winapi_thunks.obj
 0002:000023e0       ??_C@_1EI@MPIAOHOC@?$AAa?$AAp?$AAi?$AA?9?$AAm?$AAs?$AA?9?$AAw?$AAi?$AAn?$AA?9?$AAc?$AAo?$AAr?$AAe?$AA?9?$AAl?$AAo?$AAc?$AAa?$AAl?$AAi?$AAz?$AAa?$AAt?$AAi?$AAo?$AAn?$AA?9?$AAl?$AA1?$AA?9@ 00000001800183e0     libucrt:winapi_thunks.obj
 0002:00002430       ??_C@_1FK@FPHCKFIE@?$AAa?$AAp?$AAi?$AA?9?$AAm?$AAs?$AA?9?$AAw?$AAi?$AAn?$AA?9?$AAc?$AAo?$AAr?$AAe?$AA?9?$AAl?$AAo?$AAc?$AAa?$AAl?$AAi?$AAz?$AAa?$AAt?$AAi?$AAo?$AAn?$AA?9?$AAo?$AAb?$AAs@ 0000000180018430     libucrt:winapi_thunks.obj
 0002:00002490       ??_C@_1EM@DILCGIIO@?$AAa?$AAp?$AAi?$AA?9?$AAm?$AAs?$AA?9?$AAw?$AAi?$AAn?$AA?9?$AAc?$AAo?$AAr?$AAe?$AA?9?$AAp?$AAr?$AAo?$AAc?$AAe?$AAs?$AAs?$AAt?$AAh?$AAr?$AAe?$AAa?$AAd?$AAs?$AA?9?$AAl@ 0000000180018490     libucrt:winapi_thunks.obj
 0002:000024e0       ??_C@_1DM@LNCGDDPN@?$AAa?$AAp?$AAi?$AA?9?$AAm?$AAs?$AA?9?$AAw?$AAi?$AAn?$AA?9?$AAc?$AAo?$AAr?$AAe?$AA?9?$AAs?$AAt?$AAr?$AAi?$AAn?$AAg?$AA?9?$AAl?$AA1?$AA?9?$AA1?$AA?9?$AA0?$AA?$AA@ 00000001800184e0     libucrt:winapi_thunks.obj
 0002:00002520       ??_C@_1DO@FPAPJEMD@?$AAa?$AAp?$AAi?$AA?9?$AAm?$AAs?$AA?9?$AAw?$AAi?$AAn?$AA?9?$AAc?$AAo?$AAr?$AAe?$AA?9?$AAs?$AAy?$AAs?$AAi?$AAn?$AAf?$AAo?$AA?9?$AAl?$AA1?$AA?9?$AA2?$AA?9?$AA1?$AA?$AA@ 0000000180018520     libucrt:winapi_thunks.obj
 0002:00002560       ??_C@_1DK@NDHNAHIO@?$AAa?$AAp?$AAi?$AA?9?$AAm?$AAs?$AA?9?$AAw?$AAi?$AAn?$AA?9?$AAc?$AAo?$AAr?$AAe?$AA?9?$AAw?$AAi?$AAn?$AAr?$AAt?$AA?9?$AAl?$AA1?$AA?9?$AA1?$AA?9?$AA0?$AA?$AA@ 0000000180018560     libucrt:winapi_thunks.obj
 0002:000025a0       ??_C@_1DM@KGHDGBCM@?$AAa?$AAp?$AAi?$AA?9?$AAm?$AAs?$AA?9?$AAw?$AAi?$AAn?$AA?9?$AAc?$AAo?$AAr?$AAe?$AA?9?$AAx?$AAs?$AAt?$AAa?$AAt?$AAe?$AA?9?$AAl?$AA2?$AA?9?$AA1?$AA?9?$AA0?$AA?$AA@ 00000001800185a0     libucrt:winapi_thunks.obj
 0002:000025e0       ??_C@_1EO@IJIOEFOH@?$AAa?$AAp?$AAi?$AA?9?$AAm?$AAs?$AA?9?$AAw?$AAi?$AAn?$AA?9?$AAr?$AAt?$AAc?$AAo?$AAr?$AAe?$AA?9?$AAn?$AAt?$AAu?$AAs?$AAe?$AAr?$AA?9?$AAw?$AAi?$AAn?$AAd?$AAo?$AAw?$AA?9@ 00000001800185e0     libucrt:winapi_thunks.obj
 0002:00002630       ??_C@_1FG@HHGEKANL@?$AAa?$AAp?$AAi?$AA?9?$AAm?$AAs?$AA?9?$AAw?$AAi?$AAn?$AA?9?$AAs?$AAe?$AAc?$AAu?$AAr?$AAi?$AAt?$AAy?$AA?9?$AAs?$AAy?$AAs?$AAt?$AAe?$AAm?$AAf?$AAu?$AAn?$AAc?$AAt?$AAi@ 0000000180018630     libucrt:winapi_thunks.obj
 0002:00002690       ??_C@_1FG@NCKKOLKO@?$AAe?$AAx?$AAt?$AA?9?$AAm?$AAs?$AA?9?$AAw?$AAi?$AAn?$AA?9?$AAk?$AAe?$AAr?$AAn?$AAe?$AAl?$AA3?$AA2?$AA?9?$AAp?$AAa?$AAc?$AAk?$AAa?$AAg?$AAe?$AA?9?$AAc?$AAu?$AAr?$AAr@ 0000000180018690     libucrt:winapi_thunks.obj
 0002:000026f0       ??_C@_1EG@DBIOJECG@?$AAe?$AAx?$AAt?$AA?9?$AAm?$AAs?$AA?9?$AAw?$AAi?$AAn?$AA?9?$AAn?$AAt?$AAu?$AAs?$AAe?$AAr?$AA?9?$AAd?$AAi?$AAa?$AAl?$AAo?$AAg?$AAb?$AAo?$AAx?$AA?9?$AAl?$AA1?$AA?9?$AA1@ 00000001800186f0     libucrt:winapi_thunks.obj
 0002:00002740       ??_C@_1EO@FIHMJCLF@?$AAe?$AAx?$AAt?$AA?9?$AAm?$AAs?$AA?9?$AAw?$AAi?$AAn?$AA?9?$AAn?$AAt?$AAu?$AAs?$AAe?$AAr?$AA?9?$AAw?$AAi?$AAn?$AAd?$AAo?$AAw?$AAs?$AAt?$AAa?$AAt?$AAi?$AAo?$AAn?$AA?9@ 0000000180018740     libucrt:winapi_thunks.obj
 0002:00002790       ??_C@_1O@BCCLBEOE@?$AAu?$AAs?$AAe?$AAr?$AA3?$AA2?$AA?$AA@ 0000000180018790     libucrt:winapi_thunks.obj
 0002:000027c8       ??_C@_0BE@JOGNEJCI@GetCurrentPackageId?$AA@ 00000001800187c8     libucrt:winapi_thunks.obj
 0002:000027f0       ??_C@_0O@KKBNKAPF@LCMapStringEx?$AA@ 00000001800187f0     libucrt:winapi_thunks.obj
 0002:00002808       ??_C@_0BB@HBDEELFH@LocaleNameToLCID?$AA@ 0000000180018808     libucrt:winapi_thunks.obj
 0002:00002840       ??_C@_1M@HPNHIDJI@?$AAj?$AAa?$AA?9?$AAJ?$AAP?$AA?$AA@ 0000000180018840     libucrt:mbctype.obj
 0002:00002850       ??_C@_1M@BIBDDEMK@?$AAz?$AAh?$AA?9?$AAC?$AAN?$AA?$AA@ 0000000180018850     libucrt:mbctype.obj
 0002:00002860       ??_C@_1M@JLOOOEGK@?$AAk?$AAo?$AA?9?$AAK?$AAR?$AA?$AA@ 0000000180018860     libucrt:mbctype.obj
 0002:00002870       ??_C@_1M@CLNBBOPM@?$AAz?$AAh?$AA?9?$AAT?$AAW?$AA?$AA@ 0000000180018870     libucrt:mbctype.obj
 0002:00002880       ?large_power_data@?1??multiply_by_power_of_ten@__crt_strtox@@YA_NAEAUbig_integer@2@I@Z@4QBIB 0000000180018880     libucrt:cfout.obj
 0002:00003190       ?large_power_indices@?1??multiply_by_power_of_ten@__crt_strtox@@YA_NAEAUbig_integer@2@I@Z@4QBUunpack_index@?1??12@YA_N0I@Z@B 0000000180019190     libucrt:cfout.obj
 0002:00003228       ?small_powers_of_ten@?6??multiply_by_power_of_ten@__crt_strtox@@YA_NAEAUbig_integer@2@I@Z@4QBIB 0000000180019228     libucrt:cfout.obj
 0002:0000324c       ??_C@_01GBGANLPD@0?$AA@    000000018001924c     libucrt:cfout.obj
 0002:00003250       ??_C@_05DNEBIAHO@1?$CDINF?$AA@ 0000000180019250     libucrt:cfout.obj
 0002:00003258       ??_C@_06IMKFLFPG@1?$CDQNAN?$AA@ 0000000180019258     libucrt:cfout.obj
 0002:00003260       ??_C@_06PGGFOGJG@1?$CDSNAN?$AA@ 0000000180019260     libucrt:cfout.obj
 0002:00003268       ??_C@_05PHHOCPM@1?$CDIND?$AA@ 0000000180019268     libucrt:cfout.obj
 0002:00003270       ??_C@_15PJPFLCCM@?$AAu?$AAk?$AA?$AA@ 0000000180019270     libucrt:get_qualified_locale.obj
 0002:000040c0       ??_C@_15EMKDOKLE@?$AAa?$AAr?$AA?$AA@ 000000018001a0c0     libucrt:lcidtoname_downlevel.obj
 0002:000040c8       ??_C@_15KNPADPLH@?$AAb?$AAg?$AA?$AA@ 000000018001a0c8     libucrt:lcidtoname_downlevel.obj
 0002:000040d0       ??_C@_15EDMHLDMO@?$AAc?$AAa?$AA?$AA@ 000000018001a0d0     libucrt:lcidtoname_downlevel.obj
 0002:000040d8       ??_C@_1O@BPEAJADD@?$AAz?$AAh?$AA?9?$AAC?$AAH?$AAS?$AA?$AA@ 000000018001a0d8     libucrt:lcidtoname_downlevel.obj
 0002:000040e8       ??_C@_15LJNHCMNK@?$AAc?$AAs?$AA?$AA@ 000000018001a0e8     libucrt:lcidtoname_downlevel.obj
 0002:000040f0       ??_C@_15FOMCIDHG@?$AAd?$AAa?$AA?$AA@ 000000018001a0f0     libucrt:lcidtoname_downlevel.obj
 0002:000040f8       ??_C@_15NBKABECB@?$AAd?$AAe?$AA?$AA@ 000000018001a0f8     libucrt:lcidtoname_downlevel.obj
 0002:00004100       ??_C@_15GHPEIIAO@?$AAe?$AAl?$AA?$AA@ 000000018001a100     libucrt:lcidtoname_downlevel.obj
 0002:00004108       ??_C@_15MNPNEAIF@?$AAe?$AAn?$AA?$AA@ 000000018001a108     libucrt:lcidtoname_downlevel.obj
 0002:00004110       ??_C@_15GPIOMPMH@?$AAe?$AAs?$AA?$AA@ 000000018001a110     libucrt:lcidtoname_downlevel.obj
 0002:00004118       ??_C@_15NGLOAKJC@?$AAf?$AAi?$AA?$AA@ 000000018001a118     libucrt:lcidtoname_downlevel.obj
 0002:00004120       ??_C@_15FBKGNKAM@?$AAf?$AAr?$AA?$AA@ 000000018001a120     libucrt:lcidtoname_downlevel.obj
 0002:00004128       ??_C@_15KGGCNEFK@?$AAh?$AAe?$AA?$AA@ 000000018001a128     libucrt:lcidtoname_downlevel.obj
 0002:00004130       ??_C@_15PGHLIDMF@?$AAh?$AAu?$AA?$AA@ 000000018001a130     libucrt:lcidtoname_downlevel.obj
 0002:00004138       ??_C@_15BIEMAPLM@?$AAi?$AAs?$AA?$AA@ 000000018001a138     libucrt:lcidtoname_downlevel.obj
 0002:00004140       ??_C@_15IFJLDHAF@?$AAi?$AAt?$AA?$AA@ 000000018001a140     libucrt:lcidtoname_downlevel.obj
 0002:00004148       ??_C@_15GEMIOCAG@?$AAj?$AAa?$AA?$AA@ 000000018001a148     libucrt:lcidtoname_downlevel.obj
 0002:00004150       ??_C@_15EPELEGJA@?$AAk?$AAo?$AA?$AA@ 000000018001a150     libucrt:lcidtoname_downlevel.obj
 0002:00004158       ??_C@_15NDDHIMN@?$AAn?$AAl?$AA?$AA@ 000000018001a158     libucrt:lcidtoname_downlevel.obj
 0002:00004160       ??_C@_15BPIGNHCD@?$AAn?$AAo?$AA?$AA@ 000000018001a160     libucrt:lcidtoname_downlevel.obj
 0002:00004168       ??_C@_15DEOPBLCG@?$AAp?$AAl?$AA?$AA@ 000000018001a168     libucrt:lcidtoname_downlevel.obj
 0002:00004170       ??_C@_15KBECGEFG@?$AAp?$AAt?$AA?$AA@ 000000018001a170     libucrt:lcidtoname_downlevel.obj
 0002:00004178       ??_C@_15GLJCBFMD@?$AAr?$AAo?$AA?$AA@ 000000018001a178     libucrt:lcidtoname_downlevel.obj
 0002:00004180       ??_C@_15FEDGKCDI@?$AAr?$AAu?$AA?$AA@ 000000018001a180     libucrt:lcidtoname_downlevel.obj
 0002:00004188       ??_C@_15GLKMLLHM@?$AAh?$AAr?$AA?$AA@ 000000018001a188     libucrt:lcidtoname_downlevel.obj
 0002:00004190       ??_C@_15CPKMFBDB@?$AAs?$AAk?$AA?$AA@ 000000018001a190     libucrt:lcidtoname_downlevel.obj
 0002:00004198       ??_C@_15BAAIOGMK@?$AAs?$AAq?$AA?$AA@ 000000018001a198     libucrt:lcidtoname_downlevel.obj
 0002:000041a0       ??_C@_15INNPNOHD@?$AAs?$AAv?$AA?$AA@ 000000018001a1a0     libucrt:lcidtoname_downlevel.obj
 0002:000041a8       ??_C@_15CABMMOGH@?$AAt?$AAh?$AA?$AA@ 000000018001a1a8     libucrt:lcidtoname_downlevel.obj
 0002:000041b0       ??_C@_15BPLIHJJM@?$AAt?$AAr?$AA?$AA@ 000000018001a1b0     libucrt:lcidtoname_downlevel.obj
 0002:000041b8       ??_C@_15NEOEKKDJ@?$AAu?$AAr?$AA?$AA@ 000000018001a1b8     libucrt:lcidtoname_downlevel.obj
 0002:000041c0       ??_C@_15NFICGAJK@?$AAi?$AAd?$AA?$AA@ 000000018001a1c0     libucrt:lcidtoname_downlevel.obj
 0002:000041c8       ??_C@_15HPJPHDM@?$AAb?$AAe?$AA?$AA@ 000000018001a1c8     libucrt:lcidtoname_downlevel.obj
 0002:000041d0       ??_C@_15LCHLGJII@?$AAs?$AAl?$AA?$AA@ 000000018001a1d0     libucrt:lcidtoname_downlevel.obj
 0002:000041d8       ??_C@_15PCFJPHHO@?$AAe?$AAt?$AA?$AA@ 000000018001a1d8     libucrt:lcidtoname_downlevel.obj
 0002:000041e0       ??_C@_15HPFPGODN@?$AAl?$AAv?$AA?$AA@ 000000018001a1e0     libucrt:lcidtoname_downlevel.obj
 0002:000041e8       ??_C@_15NFFGKGLG@?$AAl?$AAt?$AA?$AA@ 000000018001a1e8     libucrt:lcidtoname_downlevel.obj
 0002:000041f0       ??_C@_15BDAKCCHN@?$AAf?$AAa?$AA?$AA@ 000000018001a1f0     libucrt:lcidtoname_downlevel.obj
 0002:000041f8       ??_C@_15NFGIAIAJ@?$AAv?$AAi?$AA?$AA@ 000000018001a1f8     libucrt:lcidtoname_downlevel.obj
 0002:00004200       ??_C@_15LMKNDMHN@?$AAh?$AAy?$AA?$AA@ 000000018001a200     libucrt:lcidtoname_downlevel.obj
 0002:00004208       ??_C@_15IJBHMCFL@?$AAa?$AAz?$AA?$AA@ 000000018001a208     libucrt:lcidtoname_downlevel.obj
 0002:00004210       ??_C@_15EKOFJABL@?$AAe?$AAu?$AA?$AA@ 000000018001a210     libucrt:lcidtoname_downlevel.obj
 0002:00004218       ??_C@_15BGHADCNK@?$AAm?$AAk?$AA?$AA@ 000000018001a218     libucrt:lcidtoname_downlevel.obj
 0002:00004220       ??_C@_15JDNICKHM@?$AAa?$AAf?$AA?$AA@ 000000018001a220     libucrt:lcidtoname_downlevel.obj
 0002:00004228       ??_C@_15KPJEDBKD@?$AAk?$AAa?$AA?$AA@ 000000018001a228     libucrt:lcidtoname_downlevel.obj
 0002:00004230       ??_C@_15PDNFFFEO@?$AAf?$AAo?$AA?$AA@ 000000018001a230     libucrt:lcidtoname_downlevel.obj
 0002:00004238       ??_C@_15OMLEGLOC@?$AAh?$AAi?$AA?$AA@ 000000018001a238     libucrt:lcidtoname_downlevel.obj
 0002:00004240       ??_C@_15IDNNENKK@?$AAm?$AAs?$AA?$AA@ 000000018001a240     libucrt:lcidtoname_downlevel.obj
 0002:00004248       ??_C@_15MACJNBMH@?$AAk?$AAk?$AA?$AA@ 000000018001a248     libucrt:lcidtoname_downlevel.obj
 0002:00004250       ??_C@_15DKDJEOND@?$AAk?$AAy?$AA?$AA@ 000000018001a250     libucrt:lcidtoname_downlevel.obj
 0002:00004258       ??_C@_15DFGDLJBG@?$AAs?$AAw?$AA?$AA@ 000000018001a258     libucrt:lcidtoname_downlevel.obj
 0002:00004260       ??_C@_15BBFAICNG@?$AAu?$AAz?$AA?$AA@ 000000018001a260     libucrt:lcidtoname_downlevel.obj
 0002:00004268       ??_C@_15DKNDCGEA@?$AAt?$AAt?$AA?$AA@ 000000018001a268     libucrt:lcidtoname_downlevel.obj
 0002:00004270       ??_C@_15MGIFMDPL@?$AAp?$AAa?$AA?$AA@ 000000018001a270     libucrt:lcidtoname_downlevel.obj
 0002:00004278       ??_C@_15HCNDBBA@?$AAg?$AAu?$AA?$AA@ 000000018001a278     libucrt:lcidtoname_downlevel.obj
 0002:00004280       ??_C@_15FNBEIBON@?$AAt?$AAa?$AA?$AA@ 000000018001a280     libucrt:lcidtoname_downlevel.obj
 0002:00004288       ??_C@_15NCHGBGLK@?$AAt?$AAe?$AA?$AA@ 000000018001a288     libucrt:lcidtoname_downlevel.obj
 0002:00004290       ??_C@_15PHPHCBPF@?$AAk?$AAn?$AA?$AA@ 000000018001a290     libucrt:lcidtoname_downlevel.obj
 0002:00004298       ??_C@_15DLGBCKMP@?$AAm?$AAr?$AA?$AA@ 000000018001a298     libucrt:lcidtoname_downlevel.obj
 0002:000042a0       ??_C@_15EABBLBFF@?$AAs?$AAa?$AA?$AA@ 000000018001a2a0     libucrt:lcidtoname_downlevel.obj
 0002:000042a8       ??_C@_15CBKOMCOI@?$AAm?$AAn?$AA?$AA@ 000000018001a2a8     libucrt:lcidtoname_downlevel.obj
 0002:000042b0       ??_C@_15CKDMCJAF@?$AAg?$AAl?$AA?$AA@ 000000018001a2b0     libucrt:lcidtoname_downlevel.obj
 0002:000042b8       ??_C@_17CNJFBPG@?$AAk?$AAo?$AAk?$AA?$AA@ 000000018001a2b8     libucrt:lcidtoname_downlevel.obj
 0002:000042c0       ??_C@_17FFBJICPL@?$AAs?$AAy?$AAr?$AA?$AA@ 000000018001a2c0     libucrt:lcidtoname_downlevel.obj
 0002:000042c8       ??_C@_17KPNDCPAF@?$AAd?$AAi?$AAv?$AA?$AA@ 000000018001a2c8     libucrt:lcidtoname_downlevel.obj
 0002:000042d0       ??_C@_1M@OKAHONE@?$AAa?$AAr?$AA?9?$AAS?$AAA?$AA?$AA@ 000000018001a2d0     libucrt:lcidtoname_downlevel.obj
 0002:000042e0       ??_C@_1M@FFFIGIGK@?$AAb?$AAg?$AA?9?$AAB?$AAG?$AA?$AA@ 000000018001a2e0     libucrt:lcidtoname_downlevel.obj
 0002:000042f0       ??_C@_1M@BJNKEDC@?$AAc?$AAa?$AA?9?$AAE?$AAS?$AA?$AA@ 000000018001a2f0     libucrt:lcidtoname_downlevel.obj
 0002:00004300       ??_C@_1M@IJJHFJHA@?$AAc?$AAs?$AA?9?$AAC?$AAZ?$AA?$AA@ 000000018001a300     libucrt:lcidtoname_downlevel.obj
 0002:00004310       ??_C@_1M@CLPEOBGI@?$AAd?$AAa?$AA?9?$AAD?$AAK?$AA?$AA@ 000000018001a310     libucrt:lcidtoname_downlevel.obj
 0002:00004320       ??_C@_1M@MCMADGCB@?$AAd?$AAe?$AA?9?$AAD?$AAE?$AA?$AA@ 000000018001a320     libucrt:lcidtoname_downlevel.obj
 0002:00004330       ??_C@_1M@OOCKEMAM@?$AAe?$AAl?$AA?9?$AAG?$AAR?$AA?$AA@ 000000018001a330     libucrt:lcidtoname_downlevel.obj
 0002:00004340       ??_C@_1M@DDNJFGID@?$AAf?$AAi?$AA?9?$AAF?$AAI?$AA?$AA@ 000000018001a340     libucrt:lcidtoname_downlevel.obj
 0002:00004350       ??_C@_1M@GLIPPMAC@?$AAf?$AAr?$AA?9?$AAF?$AAR?$AA?$AA@ 000000018001a350     libucrt:lcidtoname_downlevel.obj
 0002:00004360       ??_C@_1M@GFMCHPE@?$AAh?$AAe?$AA?9?$AAI?$AAL?$AA?$AA@ 000000018001a360     libucrt:lcidtoname_downlevel.obj
 0002:00004370       ??_C@_1M@MHLPGNKM@?$AAh?$AAu?$AA?9?$AAH?$AAU?$AA?$AA@ 000000018001a370     libucrt:lcidtoname_downlevel.obj
 0002:00004380       ??_C@_1M@LPDDNNPN@?$AAi?$AAs?$AA?9?$AAI?$AAS?$AA?$AA@ 000000018001a380     libucrt:lcidtoname_downlevel.obj
 0002:00004390       ??_C@_1M@MADIPODN@?$AAi?$AAt?$AA?9?$AAI?$AAT?$AA?$AA@ 000000018001a390     libucrt:lcidtoname_downlevel.obj
 0002:000043a0       ??_C@_1M@IHBJJGG@?$AAn?$AAl?$AA?9?$AAN?$AAL?$AA?$AA@ 000000018001a3a0     libucrt:lcidtoname_downlevel.obj
 0002:000043b0       ??_C@_1M@EANAGDL@?$AAn?$AAb?$AA?9?$AAN?$AAO?$AA?$AA@ 000000018001a3b0     libucrt:lcidtoname_downlevel.obj
 0002:000043c0       ??_C@_1M@NEIEMEGP@?$AAp?$AAl?$AA?9?$AAP?$AAL?$AA?$AA@ 000000018001a3c0     libucrt:lcidtoname_downlevel.obj
 0002:000043d0       ??_C@_1M@BOCFIGEP@?$AAp?$AAt?$AA?9?$AAB?$AAR?$AA?$AA@ 000000018001a3d0     libucrt:lcidtoname_downlevel.obj
 0002:000043e0       ??_C@_1M@IMPFOPBG@?$AAr?$AAo?$AA?9?$AAR?$AAO?$AA?$AA@ 000000018001a3e0     libucrt:lcidtoname_downlevel.obj
 0002:000043f0       ??_C@_1M@IDNNEJMM@?$AAr?$AAu?$AA?9?$AAR?$AAU?$AA?$AA@ 000000018001a3f0     libucrt:lcidtoname_downlevel.obj
 0002:00004400       ??_C@_1M@LILEEOGM@?$AAh?$AAr?$AA?9?$AAH?$AAR?$AA?$AA@ 000000018001a400     libucrt:lcidtoname_downlevel.obj
 0002:00004410       ??_C@_1M@FKIFEHPB@?$AAs?$AAk?$AA?9?$AAS?$AAK?$AA?$AA@ 000000018001a410     libucrt:lcidtoname_downlevel.obj
 0002:00004420       ??_C@_1M@LJMAMNPJ@?$AAs?$AAq?$AA?9?$AAA?$AAL?$AA?$AA@ 000000018001a420     libucrt:lcidtoname_downlevel.obj
 0002:00004430       ??_C@_1M@GIAKDKJK@?$AAs?$AAv?$AA?9?$AAS?$AAE?$AA?$AA@ 000000018001a430     libucrt:lcidtoname_downlevel.obj
 0002:00004440       ??_C@_1M@MKJKIKCL@?$AAt?$AAh?$AA?9?$AAT?$AAH?$AA?$AA@ 000000018001a440     libucrt:lcidtoname_downlevel.obj
 0002:00004450       ??_C@_1M@MFLCCMPB@?$AAt?$AAr?$AA?9?$AAT?$AAR?$AA?$AA@ 000000018001a450     libucrt:lcidtoname_downlevel.obj
 0002:00004460       ??_C@_1M@OIJHDKJN@?$AAu?$AAr?$AA?9?$AAP?$AAK?$AA?$AA@ 000000018001a460     libucrt:lcidtoname_downlevel.obj
 0002:00004470       ??_C@_1M@LHIPCIEK@?$AAi?$AAd?$AA?9?$AAI?$AAD?$AA?$AA@ 000000018001a470     libucrt:lcidtoname_downlevel.obj
 0002:00004480       ??_C@_1M@MFMOBGI@?$AAu?$AAk?$AA?9?$AAU?$AAA?$AA?$AA@ 000000018001a480     libucrt:lcidtoname_downlevel.obj
 0002:00004490       ??_C@_1M@OBGLJIPL@?$AAb?$AAe?$AA?9?$AAB?$AAY?$AA?$AA@ 000000018001a490     libucrt:lcidtoname_downlevel.obj
 0002:000044a0       ??_C@_1M@BCFAJEAD@?$AAs?$AAl?$AA?9?$AAS?$AAI?$AA?$AA@ 000000018001a4a0     libucrt:lcidtoname_downlevel.obj
 0002:000044b0       ??_C@_1M@FKFFEDDN@?$AAe?$AAt?$AA?9?$AAE?$AAE?$AA?$AA@ 000000018001a4b0     libucrt:lcidtoname_downlevel.obj
 0002:000044c0       ??_C@_1M@KGKKAACI@?$AAl?$AAv?$AA?9?$AAL?$AAV?$AA?$AA@ 000000018001a4c0     libucrt:lcidtoname_downlevel.obj
 0002:000044d0       ??_C@_1M@IFGBIJO@?$AAl?$AAt?$AA?9?$AAL?$AAT?$AA?$AA@ 000000018001a4d0     libucrt:lcidtoname_downlevel.obj
 0002:000044e0       ??_C@_1M@FGEAHEDM@?$AAf?$AAa?$AA?9?$AAI?$AAR?$AA?$AA@ 000000018001a4e0     libucrt:lcidtoname_downlevel.obj
 0002:000044f0       ??_C@_1M@KBMAIBFN@?$AAv?$AAi?$AA?9?$AAV?$AAN?$AA?$AA@ 000000018001a4f0     libucrt:lcidtoname_downlevel.obj
 0002:00004500       ??_C@_1M@GPCBKDJK@?$AAh?$AAy?$AA?9?$AAA?$AAM?$AA?$AA@ 000000018001a500     libucrt:lcidtoname_downlevel.obj
 0002:00004510       ??_C@_1BG@BECMDDJB@?$AAa?$AAz?$AA?9?$AAA?$AAZ?$AA?9?$AAL?$AAa?$AAt?$AAn?$AA?$AA@ 000000018001a510     libucrt:lcidtoname_downlevel.obj
 0002:00004528       ??_C@_1M@MAOFCAEA@?$AAe?$AAu?$AA?9?$AAE?$AAS?$AA?$AA@ 000000018001a528     libucrt:lcidtoname_downlevel.obj
 0002:00004538       ??_C@_1M@IGHABKPI@?$AAm?$AAk?$AA?9?$AAM?$AAK?$AA?$AA@ 000000018001a538     libucrt:lcidtoname_downlevel.obj
 0002:00004548       ??_C@_1M@IAIGNEJG@?$AAt?$AAn?$AA?9?$AAZ?$AAA?$AA?$AA@ 000000018001a548     libucrt:lcidtoname_downlevel.obj
 0002:00004558       ??_C@_1M@IIJCOJFA@?$AAx?$AAh?$AA?9?$AAZ?$AAA?$AA?$AA@ 000000018001a558     libucrt:lcidtoname_downlevel.obj
 0002:00004568       ??_C@_1M@LGPJHNJH@?$AAz?$AAu?$AA?9?$AAZ?$AAA?$AA?$AA@ 000000018001a568     libucrt:lcidtoname_downlevel.obj
 0002:00004578       ??_C@_1M@HOKAOIO@?$AAa?$AAf?$AA?9?$AAZ?$AAA?$AA?$AA@ 000000018001a578     libucrt:lcidtoname_downlevel.obj
 0002:00004588       ??_C@_1M@DPCLHLIE@?$AAk?$AAa?$AA?9?$AAG?$AAE?$AA?$AA@ 000000018001a588     libucrt:lcidtoname_downlevel.obj
 0002:00004598       ??_C@_1M@BLKMHJBI@?$AAf?$AAo?$AA?9?$AAF?$AAO?$AA?$AA@ 000000018001a598     libucrt:lcidtoname_downlevel.obj
 0002:000045a8       ??_C@_1M@LGGJAPPB@?$AAh?$AAi?$AA?9?$AAI?$AAN?$AA?$AA@ 000000018001a5a8     libucrt:lcidtoname_downlevel.obj
 0002:000045b8       ??_C@_1M@FIKPIHFE@?$AAm?$AAt?$AA?9?$AAM?$AAT?$AA?$AA@ 000000018001a5b8     libucrt:lcidtoname_downlevel.obj
 0002:000045c8       ??_C@_1M@HEGGPBFA@?$AAs?$AAe?$AA?9?$AAN?$AAO?$AA?$AA@ 000000018001a5c8     libucrt:lcidtoname_downlevel.obj
 0002:000045d8       ??_C@_1M@EIBJEEPA@?$AAm?$AAs?$AA?9?$AAM?$AAY?$AA?$AA@ 000000018001a5d8     libucrt:lcidtoname_downlevel.obj
 0002:000045e8       ??_C@_1M@FHLBGMPP@?$AAk?$AAk?$AA?9?$AAK?$AAZ?$AA?$AA@ 000000018001a5e8     libucrt:lcidtoname_downlevel.obj
 0002:000045f8       ??_C@_1M@NGJJLCGI@?$AAk?$AAy?$AA?9?$AAK?$AAG?$AA?$AA@ 000000018001a5f8     libucrt:lcidtoname_downlevel.obj
 0002:00004608       ??_C@_1M@GIENNBFC@?$AAs?$AAw?$AA?9?$AAK?$AAE?$AA?$AA@ 000000018001a608     libucrt:lcidtoname_downlevel.obj
 0002:00004618       ??_C@_1BG@NDGMJIMJ@?$AAu?$AAz?$AA?9?$AAU?$AAZ?$AA?9?$AAL?$AAa?$AAt?$AAn?$AA?$AA@ 000000018001a618     libucrt:lcidtoname_downlevel.obj
 0002:00004630       ??_C@_1M@IDCCIHBC@?$AAt?$AAt?$AA?9?$AAR?$AAU?$AA?$AA@ 000000018001a630     libucrt:lcidtoname_downlevel.obj
 0002:00004640       ??_C@_1M@LOICPMOJ@?$AAb?$AAn?$AA?9?$AAI?$AAN?$AA?$AA@ 000000018001a640     libucrt:lcidtoname_downlevel.obj
 0002:00004650       ??_C@_1M@KPKKNEAH@?$AAp?$AAa?$AA?9?$AAI?$AAN?$AA?$AA@ 000000018001a650     libucrt:lcidtoname_downlevel.obj
 0002:00004660       ??_C@_1M@PJGPPBOG@?$AAg?$AAu?$AA?9?$AAI?$AAN?$AA?$AA@ 000000018001a660     libucrt:lcidtoname_downlevel.obj
 0002:00004670       ??_C@_1M@KMKMOPHI@?$AAt?$AAa?$AA?9?$AAI?$AAN?$AA?$AA@ 000000018001a670     libucrt:lcidtoname_downlevel.obj
 0002:00004680       ??_C@_1M@KFEHEPAC@?$AAt?$AAe?$AA?9?$AAI?$AAN?$AA?$AA@ 000000018001a680     libucrt:lcidtoname_downlevel.obj
 0002:00004690       ??_C@_1M@CDCLMGHI@?$AAk?$AAn?$AA?9?$AAI?$AAN?$AA?$AA@ 000000018001a690     libucrt:lcidtoname_downlevel.obj
 0002:000046a0       ??_C@_1M@MIODLDKF@?$AAm?$AAl?$AA?9?$AAI?$AAN?$AA?$AA@ 000000018001a6a0     libucrt:lcidtoname_downlevel.obj
 0002:000046b0       ??_C@_1M@PBIEACPO@?$AAm?$AAr?$AA?9?$AAI?$AAN?$AA?$AA@ 000000018001a6b0     libucrt:lcidtoname_downlevel.obj
 0002:000046c0       ??_C@_1M@NIDEAGPH@?$AAs?$AAa?$AA?9?$AAI?$AAN?$AA?$AA@ 000000018001a6c0     libucrt:lcidtoname_downlevel.obj
 0002:000046d0       ??_C@_1M@FHIHCBIO@?$AAm?$AAn?$AA?9?$AAM?$AAN?$AA?$AA@ 000000018001a6d0     libucrt:lcidtoname_downlevel.obj
 0002:000046e0       ??_C@_1M@JAIJPENP@?$AAc?$AAy?$AA?9?$AAG?$AAB?$AA?$AA@ 000000018001a6e0     libucrt:lcidtoname_downlevel.obj
 0002:000046f0       ??_C@_1M@PHGFBEPN@?$AAg?$AAl?$AA?9?$AAE?$AAS?$AA?$AA@ 000000018001a6f0     libucrt:lcidtoname_downlevel.obj
 0002:00004700       ??_C@_1O@KPIPDNCP@?$AAk?$AAo?$AAk?$AA?9?$AAI?$AAN?$AA?$AA@ 000000018001a700     libucrt:lcidtoname_downlevel.obj
 0002:00004710       ??_C@_1O@KNHJLDJA@?$AAs?$AAy?$AAr?$AA?9?$AAS?$AAY?$AA?$AA@ 000000018001a710     libucrt:lcidtoname_downlevel.obj
 0002:00004720       ??_C@_1O@MKEKBLAH@?$AAd?$AAi?$AAv?$AA?9?$AAM?$AAV?$AA?$AA@ 000000018001a720     libucrt:lcidtoname_downlevel.obj
 0002:00004730       ??_C@_1O@OHDCKDDF@?$AAq?$AAu?$AAz?$AA?9?$AAB?$AAO?$AA?$AA@ 000000018001a730     libucrt:lcidtoname_downlevel.obj
 0002:00004740       ??_C@_1M@LEPJNLFD@?$AAn?$AAs?$AA?9?$AAZ?$AAA?$AA?$AA@ 000000018001a740     libucrt:lcidtoname_downlevel.obj
 0002:00004750       ??_C@_1M@OMLEIIJB@?$AAm?$AAi?$AA?9?$AAN?$AAZ?$AA?$AA@ 000000018001a750     libucrt:lcidtoname_downlevel.obj
 0002:00004760       ??_C@_1M@PMPEAILG@?$AAa?$AAr?$AA?9?$AAI?$AAQ?$AA?$AA@ 000000018001a760     libucrt:lcidtoname_downlevel.obj
 0002:00004770       ??_C@_1M@CNKPNOEE@?$AAd?$AAe?$AA?9?$AAC?$AAH?$AA?$AA@ 000000018001a770     libucrt:lcidtoname_downlevel.obj
 0002:00004780       ??_C@_1M@LKMGMLKO@?$AAe?$AAn?$AA?9?$AAG?$AAB?$AA?$AA@ 000000018001a780     libucrt:lcidtoname_downlevel.obj
 0002:00004790       ??_C@_1M@PGKJFFGL@?$AAe?$AAs?$AA?9?$AAM?$AAX?$AA?$AA@ 000000018001a790     libucrt:lcidtoname_downlevel.obj
 0002:000047a0       ??_C@_1M@DNNANBDC@?$AAf?$AAr?$AA?9?$AAB?$AAE?$AA?$AA@ 000000018001a7a0     libucrt:lcidtoname_downlevel.obj
 0002:000047b0       ??_C@_1M@HLGMDFHM@?$AAi?$AAt?$AA?9?$AAC?$AAH?$AA?$AA@ 000000018001a7b0     libucrt:lcidtoname_downlevel.obj
 0002:000047c0       ??_C@_1M@CLLBGJH@?$AAn?$AAl?$AA?9?$AAB?$AAE?$AA?$AA@ 000000018001a7c0     libucrt:lcidtoname_downlevel.obj
 0002:000047d0       ??_C@_1M@BODBOGLF@?$AAn?$AAn?$AA?9?$AAN?$AAO?$AA?$AA@ 000000018001a7d0     libucrt:lcidtoname_downlevel.obj
 0002:000047e0       ??_C@_1M@HFFAHKAD@?$AAp?$AAt?$AA?9?$AAP?$AAT?$AA?$AA@ 000000018001a7e0     libucrt:lcidtoname_downlevel.obj
 0002:000047f0       ??_C@_1BG@LNOAKHIE@?$AAs?$AAr?$AA?9?$AAS?$AAP?$AA?9?$AAL?$AAa?$AAt?$AAn?$AA?$AA@ 000000018001a7f0     libucrt:lcidtoname_downlevel.obj
 0002:00004808       ??_C@_1M@HBMHBGAK@?$AAs?$AAv?$AA?9?$AAF?$AAI?$AA?$AA@ 000000018001a808     libucrt:lcidtoname_downlevel.obj
 0002:00004818       ??_C@_1BG@DGCJGJBE@?$AAa?$AAz?$AA?9?$AAA?$AAZ?$AA?9?$AAC?$AAy?$AAr?$AAl?$AA?$AA@ 000000018001a818     libucrt:lcidtoname_downlevel.obj
 0002:00004830       ??_C@_1M@KEJDAAHB@?$AAs?$AAe?$AA?9?$AAS?$AAE?$AA?$AA@ 000000018001a830     libucrt:lcidtoname_downlevel.obj
 0002:00004840       ??_C@_1M@HEIBJJAD@?$AAm?$AAs?$AA?9?$AAB?$AAN?$AA?$AA@ 000000018001a840     libucrt:lcidtoname_downlevel.obj
 0002:00004850       ??_C@_1BG@PBGJMCEM@?$AAu?$AAz?$AA?9?$AAU?$AAZ?$AA?9?$AAC?$AAy?$AAr?$AAl?$AA?$AA@ 000000018001a850     libucrt:lcidtoname_downlevel.obj
 0002:00004868       ??_C@_1O@LAOBCMDF@?$AAq?$AAu?$AAz?$AA?9?$AAE?$AAC?$AA?$AA@ 000000018001a868     libucrt:lcidtoname_downlevel.obj
 0002:00004878       ??_C@_1M@POEEMAIO@?$AAa?$AAr?$AA?9?$AAE?$AAG?$AA?$AA@ 000000018001a878     libucrt:lcidtoname_downlevel.obj
 0002:00004888       ??_C@_1M@EFAKDEDL@?$AAz?$AAh?$AA?9?$AAH?$AAK?$AA?$AA@ 000000018001a888     libucrt:lcidtoname_downlevel.obj
 0002:00004898       ??_C@_1M@HKKIJHGI@?$AAd?$AAe?$AA?9?$AAA?$AAT?$AA?$AA@ 000000018001a898     libucrt:lcidtoname_downlevel.obj
 0002:000048a8       ??_C@_1M@KBFBEHJF@?$AAe?$AAn?$AA?9?$AAA?$AAU?$AA?$AA@ 000000018001a8a8     libucrt:lcidtoname_downlevel.obj
 0002:000048b8       ??_C@_1M@MNPLFAAH@?$AAe?$AAs?$AA?9?$AAE?$AAS?$AA?$AA@ 000000018001a8b8     libucrt:lcidtoname_downlevel.obj
 0002:000048c8       ??_C@_1M@HJOOJFMA@?$AAf?$AAr?$AA?9?$AAC?$AAA?$AA?$AA@ 000000018001a8c8     libucrt:lcidtoname_downlevel.obj
 0002:000048d8       ??_C@_1BG@JPOFPNAB@?$AAs?$AAr?$AA?9?$AAS?$AAP?$AA?9?$AAC?$AAy?$AAr?$AAl?$AA?$AA@ 000000018001a8d8     libucrt:lcidtoname_downlevel.obj
 0002:000048f0       ??_C@_1M@LNFOCMOB@?$AAs?$AAe?$AA?9?$AAF?$AAI?$AA?$AA@ 000000018001a8f0     libucrt:lcidtoname_downlevel.obj
 0002:00004900       ??_C@_1O@MGJBOAMB@?$AAq?$AAu?$AAz?$AA?9?$AAP?$AAE?$AA?$AA@ 000000018001a900     libucrt:lcidtoname_downlevel.obj
 0002:00004910       ??_C@_1M@GJINLBOK@?$AAa?$AAr?$AA?9?$AAL?$AAY?$AA?$AA@ 000000018001a910     libucrt:lcidtoname_downlevel.obj
 0002:00004920       ??_C@_1M@GGMNHJNL@?$AAz?$AAh?$AA?9?$AAS?$AAG?$AA?$AA@ 000000018001a920     libucrt:lcidtoname_downlevel.obj
 0002:00004930       ??_C@_1M@HOIKODND@?$AAd?$AAe?$AA?9?$AAL?$AAU?$AA?$AA@ 000000018001a930     libucrt:lcidtoname_downlevel.obj
 0002:00004940       ??_C@_1M@DDOCCGFG@?$AAe?$AAn?$AA?9?$AAC?$AAA?$AA?$AA@ 000000018001a940     libucrt:lcidtoname_downlevel.obj
 0002:00004950       ??_C@_1M@BNOEMJLF@?$AAe?$AAs?$AA?9?$AAG?$AAT?$AA?$AA@ 000000018001a950     libucrt:lcidtoname_downlevel.obj
 0002:00004960       ??_C@_1M@EOGNKEK@?$AAf?$AAr?$AA?9?$AAC?$AAH?$AA?$AA@ 000000018001a960     libucrt:lcidtoname_downlevel.obj
 0002:00004970       ??_C@_1M@FLIDJFHL@?$AAh?$AAr?$AA?9?$AAB?$AAA?$AA?$AA@ 000000018001a970     libucrt:lcidtoname_downlevel.obj
 0002:00004980       ??_C@_1O@FMCELNAJ@?$AAs?$AAm?$AAj?$AA?9?$AAN?$AAO?$AA?$AA@ 000000018001a980     libucrt:lcidtoname_downlevel.obj
 0002:00004990       ??_C@_1M@JHGLJMGJ@?$AAa?$AAr?$AA?9?$AAD?$AAZ?$AA?$AA@ 000000018001a990     libucrt:lcidtoname_downlevel.obj
 0002:000049a0       ??_C@_1M@JKKFDCNP@?$AAz?$AAh?$AA?9?$AAM?$AAO?$AA?$AA@ 000000018001a9a0     libucrt:lcidtoname_downlevel.obj
 0002:000049b0       ??_C@_1M@GEEFALPE@?$AAd?$AAe?$AA?9?$AAL?$AAI?$AA?$AA@ 000000018001a9b0     libucrt:lcidtoname_downlevel.obj
 0002:000049c0       ??_C@_1M@IGEOFBG@?$AAe?$AAn?$AA?9?$AAN?$AAZ?$AA?$AA@ 000000018001a9c0     libucrt:lcidtoname_downlevel.obj
 0002:000049d0       ??_C@_1M@KDBONEHP@?$AAe?$AAs?$AA?9?$AAC?$AAR?$AA?$AA@ 000000018001a9d0     libucrt:lcidtoname_downlevel.obj
 0002:000049e0       ??_C@_1M@FHMDOHNN@?$AAf?$AAr?$AA?9?$AAL?$AAU?$AA?$AA@ 000000018001a9e0     libucrt:lcidtoname_downlevel.obj
 0002:000049f0       ??_C@_1BG@NFKKMAFG@?$AAb?$AAs?$AA?9?$AAB?$AAA?$AA?9?$AAL?$AAa?$AAt?$AAn?$AA?$AA@ 000000018001a9f0     libucrt:lcidtoname_downlevel.obj
 0002:00004a08       ??_C@_1O@IMNBEMCI@?$AAs?$AAm?$AAj?$AA?9?$AAS?$AAE?$AA?$AA@ 000000018001aa08     libucrt:lcidtoname_downlevel.obj
 0002:00004a18       ??_C@_1M@DHHMBNDP@?$AAa?$AAr?$AA?9?$AAM?$AAA?$AA?$AA@ 000000018001aa18     libucrt:lcidtoname_downlevel.obj
 0002:00004a28       ??_C@_1M@BNBLJCGH@?$AAe?$AAn?$AA?9?$AAI?$AAE?$AA?$AA@ 000000018001aa28     libucrt:lcidtoname_downlevel.obj
 0002:00004a38       ??_C@_1M@GEPAFMDL@?$AAe?$AAs?$AA?9?$AAP?$AAA?$AA?$AA@ 000000018001aa38     libucrt:lcidtoname_downlevel.obj
 0002:00004a48       ??_C@_1M@OJONDMDL@?$AAf?$AAr?$AA?9?$AAM?$AAC?$AA?$AA@ 000000018001aa48     libucrt:lcidtoname_downlevel.obj
 0002:00004a58       ??_C@_1BG@OBCNFJB@?$AAs?$AAr?$AA?9?$AAB?$AAA?$AA?9?$AAL?$AAa?$AAt?$AAn?$AA?$AA@ 000000018001aa58     libucrt:lcidtoname_downlevel.obj
 0002:00004a70       ??_C@_1O@KEMEEGPO@?$AAs?$AAm?$AAa?$AA?9?$AAN?$AAO?$AA?$AA@ 000000018001aa70     libucrt:lcidtoname_downlevel.obj
 0002:00004a80       ??_C@_1M@ELMGFODK@?$AAa?$AAr?$AA?9?$AAT?$AAN?$AA?$AA@ 000000018001aa80     libucrt:lcidtoname_downlevel.obj
 0002:00004a90       ??_C@_1M@BHDLHFAF@?$AAe?$AAn?$AA?9?$AAZ?$AAA?$AA?$AA@ 000000018001aa90     libucrt:lcidtoname_downlevel.obj
 0002:00004aa0       ??_C@_1M@BMGIGLIF@?$AAe?$AAs?$AA?9?$AAD?$AAO?$AA?$AA@ 000000018001aaa0     libucrt:lcidtoname_downlevel.obj
 0002:00004ab0       ??_C@_1BG@CMBHIPBE@?$AAs?$AAr?$AA?9?$AAB?$AAA?$AA?9?$AAC?$AAy?$AAr?$AAl?$AA?$AA@ 000000018001aab0     libucrt:lcidtoname_downlevel.obj
 0002:00004ac8       ??_C@_1O@HEDBLHNP@?$AAs?$AAm?$AAa?$AA?9?$AAS?$AAE?$AA?$AA@ 000000018001aac8     libucrt:lcidtoname_downlevel.obj
 0002:00004ad8       ??_C@_1M@DAGCADIM@?$AAa?$AAr?$AA?9?$AAO?$AAM?$AA?$AA@ 000000018001aad8     libucrt:lcidtoname_downlevel.obj
 0002:00004ae8       ??_C@_1M@FODLMICG@?$AAe?$AAn?$AA?9?$AAJ?$AAM?$AA?$AA@ 000000018001aae8     libucrt:lcidtoname_downlevel.obj
 0002:00004af8       ??_C@_1M@DNMLCIHB@?$AAe?$AAs?$AA?9?$AAV?$AAE?$AA?$AA@ 000000018001aaf8     libucrt:lcidtoname_downlevel.obj
 0002:00004b08       ??_C@_1O@EOKHMKJK@?$AAs?$AAm?$AAs?$AA?9?$AAF?$AAI?$AA?$AA@ 000000018001ab08     libucrt:lcidtoname_downlevel.obj
 0002:00004b18       ??_C@_1M@CAFJMKOF@?$AAa?$AAr?$AA?9?$AAY?$AAE?$AA?$AA@ 000000018001ab18     libucrt:lcidtoname_downlevel.obj
 0002:00004b28       ??_C@_1M@CBFHIJLI@?$AAe?$AAn?$AA?9?$AAC?$AAB?$AA?$AA@ 000000018001ab28     libucrt:lcidtoname_downlevel.obj
 0002:00004b38       ??_C@_1M@BGNFLDN@?$AAe?$AAs?$AA?9?$AAC?$AAO?$AA?$AA@ 000000018001ab38     libucrt:lcidtoname_downlevel.obj
 0002:00004b48       ??_C@_1O@JMPHMAMC@?$AAs?$AAm?$AAn?$AA?9?$AAF?$AAI?$AA?$AA@ 000000018001ab48     libucrt:lcidtoname_downlevel.obj
 0002:00004b58       ??_C@_1M@JLANABKE@?$AAa?$AAr?$AA?9?$AAS?$AAY?$AA?$AA@ 000000018001ab58     libucrt:lcidtoname_downlevel.obj
 0002:00004b68       ??_C@_1M@HPKGCFGN@?$AAe?$AAn?$AA?9?$AAB?$AAZ?$AA?$AA@ 000000018001ab68     libucrt:lcidtoname_downlevel.obj
 0002:00004b78       ??_C@_1M@OLJCMLGM@?$AAe?$AAs?$AA?9?$AAP?$AAE?$AA?$AA@ 000000018001ab78     libucrt:lcidtoname_downlevel.obj
 0002:00004b88       ??_C@_1M@MKKGFKLE@?$AAa?$AAr?$AA?9?$AAJ?$AAO?$AA?$AA@ 000000018001ab88     libucrt:lcidtoname_downlevel.obj
 0002:00004b98       ??_C@_1M@EKPGLDNI@?$AAe?$AAn?$AA?9?$AAT?$AAT?$AA?$AA@ 000000018001ab98     libucrt:lcidtoname_downlevel.obj
 0002:00004ba8       ??_C@_1M@OONGHFHE@?$AAe?$AAs?$AA?9?$AAA?$AAR?$AA?$AA@ 000000018001aba8     libucrt:lcidtoname_downlevel.obj
 0002:00004bb8       ??_C@_1M@OOJFGBHE@?$AAa?$AAr?$AA?9?$AAL?$AAB?$AA?$AA@ 000000018001abb8     libucrt:lcidtoname_downlevel.obj
 0002:00004bc8       ??_C@_1M@GCEJHNEG@?$AAe?$AAn?$AA?9?$AAZ?$AAW?$AA?$AA@ 000000018001abc8     libucrt:lcidtoname_downlevel.obj
 0002:00004bd8       ??_C@_1M@JNOCAHJI@?$AAe?$AAs?$AA?9?$AAE?$AAC?$AA?$AA@ 000000018001abd8     libucrt:lcidtoname_downlevel.obj
 0002:00004be8       ??_C@_1M@JEFHPGGB@?$AAa?$AAr?$AA?9?$AAK?$AAW?$AA?$AA@ 000000018001abe8     libucrt:lcidtoname_downlevel.obj
 0002:00004bf8       ??_C@_1M@MLKIBJOJ@?$AAe?$AAn?$AA?9?$AAP?$AAH?$AA?$AA@ 000000018001abf8     libucrt:lcidtoname_downlevel.obj
 0002:00004c08       ??_C@_1M@BDNIPEND@?$AAe?$AAs?$AA?9?$AAC?$AAL?$AA?$AA@ 000000018001ac08     libucrt:lcidtoname_downlevel.obj
 0002:00004c18       ??_C@_1M@MPNMEKBD@?$AAa?$AAr?$AA?9?$AAA?$AAE?$AA?$AA@ 000000018001ac18     libucrt:lcidtoname_downlevel.obj
 0002:00004c28       ??_C@_1M@KBJALCPI@?$AAe?$AAs?$AA?9?$AAU?$AAY?$AA?$AA@ 000000018001ac28     libucrt:lcidtoname_downlevel.obj
 0002:00004c38       ??_C@_1M@LLCCOAGA@?$AAa?$AAr?$AA?9?$AAB?$AAH?$AA?$AA@ 000000018001ac38     libucrt:lcidtoname_downlevel.obj
 0002:00004c48       ??_C@_1M@PBFNCDEL@?$AAe?$AAs?$AA?9?$AAP?$AAY?$AA?$AA@ 000000018001ac48     libucrt:lcidtoname_downlevel.obj
 0002:00004c58       ??_C@_1M@EDGINPNP@?$AAa?$AAr?$AA?9?$AAQ?$AAA?$AA?$AA@ 000000018001ac58     libucrt:lcidtoname_downlevel.obj
 0002:00004c68       ??_C@_1M@MKDBIIJI@?$AAe?$AAs?$AA?9?$AAB?$AAO?$AA?$AA@ 000000018001ac68     libucrt:lcidtoname_downlevel.obj
 0002:00004c78       ??_C@_1M@CPKKEBLD@?$AAe?$AAs?$AA?9?$AAS?$AAV?$AA?$AA@ 000000018001ac78     libucrt:lcidtoname_downlevel.obj
 0002:00004c88       ??_C@_1M@NDBGMMJL@?$AAe?$AAs?$AA?9?$AAH?$AAN?$AA?$AA@ 000000018001ac88     libucrt:lcidtoname_downlevel.obj
 0002:00004c98       ??_C@_1M@JIJIBHDP@?$AAe?$AAs?$AA?9?$AAN?$AAI?$AA?$AA@ 000000018001ac98     libucrt:lcidtoname_downlevel.obj
 0002:00004ca8       ??_C@_1M@CGFMKEEK@?$AAe?$AAs?$AA?9?$AAP?$AAR?$AA?$AA@ 000000018001aca8     libucrt:lcidtoname_downlevel.obj
 0002:00004cb8       ??_C@_1O@ICJHKIIK@?$AAz?$AAh?$AA?9?$AAC?$AAH?$AAT?$AA?$AA@ 000000018001acb8     libucrt:lcidtoname_downlevel.obj
 0002:00004cc8       ??_C@_15CLNEJCE@?$AAs?$AAr?$AA?$AA@ 000000018001acc8     libucrt:lcidtoname_downlevel.obj
 0002:00005b10       ??_C@_1M@KAHEKEIG@?$AAa?$AAf?$AA?9?$AAz?$AAa?$AA?$AA@ 000000018001bb10     libucrt:lcidtoname_downlevel.obj
 0002:00005b20       ??_C@_1M@GIECOABL@?$AAa?$AAr?$AA?9?$AAa?$AAe?$AA?$AA@ 000000018001bb20     libucrt:lcidtoname_downlevel.obj
 0002:00005b30       ??_C@_1M@BMLMEKGI@?$AAa?$AAr?$AA?9?$AAb?$AAh?$AA?$AA@ 000000018001bb30     libucrt:lcidtoname_downlevel.obj
 0002:00005b40       ??_C@_1M@DAPFDGGB@?$AAa?$AAr?$AA?9?$AAd?$AAz?$AA?$AA@ 000000018001bb40     libucrt:lcidtoname_downlevel.obj
 0002:00005b50       ??_C@_1M@FJNKGKIG@?$AAa?$AAr?$AA?9?$AAe?$AAg?$AA?$AA@ 000000018001bb50     libucrt:lcidtoname_downlevel.obj
 0002:00005b60       ??_C@_1M@FLGKKCLO@?$AAa?$AAr?$AA?9?$AAi?$AAq?$AA?$AA@ 000000018001bb60     libucrt:lcidtoname_downlevel.obj
 0002:00005b70       ??_C@_1M@GNDIPALM@?$AAa?$AAr?$AA?9?$AAj?$AAo?$AA?$AA@ 000000018001bb70     libucrt:lcidtoname_downlevel.obj
 0002:00005b80       ??_C@_1M@DDMJFMGJ@?$AAa?$AAr?$AA?9?$AAk?$AAw?$AA?$AA@ 000000018001bb80     libucrt:lcidtoname_downlevel.obj
 0002:00005b90       ??_C@_1M@EJALMLHM@?$AAa?$AAr?$AA?9?$AAl?$AAb?$AA?$AA@ 000000018001bb90     libucrt:lcidtoname_downlevel.obj
 0002:00005ba0       ??_C@_1M@MOBDBLOC@?$AAa?$AAr?$AA?9?$AAl?$AAy?$AA?$AA@ 000000018001bba0     libucrt:lcidtoname_downlevel.obj
 0002:00005bb0       ??_C@_1M@JAOCLHDH@?$AAa?$AAr?$AA?9?$AAm?$AAa?$AA?$AA@ 000000018001bbb0     libucrt:lcidtoname_downlevel.obj
 0002:00005bc0       ??_C@_1M@JHPMKJIE@?$AAa?$AAr?$AA?9?$AAo?$AAm?$AA?$AA@ 000000018001bbc0     libucrt:lcidtoname_downlevel.obj
 0002:00005bd0       ??_C@_1M@OEPGHFNH@?$AAa?$AAr?$AA?9?$AAq?$AAa?$AA?$AA@ 000000018001bbd0     libucrt:lcidtoname_downlevel.obj
 0002:00005be0       ??_C@_1M@KJDONENM@?$AAa?$AAr?$AA?9?$AAs?$AAa?$AA?$AA@ 000000018001bbe0     libucrt:lcidtoname_downlevel.obj
 0002:00005bf0       ??_C@_1M@DMJDKLKM@?$AAa?$AAr?$AA?9?$AAs?$AAy?$AA?$AA@ 000000018001bbf0     libucrt:lcidtoname_downlevel.obj
 0002:00005c00       ??_C@_1M@OMFIPEDC@?$AAa?$AAr?$AA?9?$AAt?$AAn?$AA?$AA@ 000000018001bc00     libucrt:lcidtoname_downlevel.obj
 0002:00005c10       ??_C@_1M@IHMHGAON@?$AAa?$AAr?$AA?9?$AAy?$AAe?$AA?$AA@ 000000018001bc10     libucrt:lcidtoname_downlevel.obj
 0002:00005c20       ??_C@_1BG@KDCPGJGB@?$AAa?$AAz?$AA?9?$AAa?$AAz?$AA?9?$AAc?$AAy?$AAr?$AAl?$AA?$AA@ 000000018001bc20     libucrt:lcidtoname_downlevel.obj
 0002:00005c38       ??_C@_1BG@IBCKDDOE@?$AAa?$AAz?$AA?9?$AAa?$AAz?$AA?9?$AAl?$AAa?$AAt?$AAn?$AA?$AA@ 000000018001bc38     libucrt:lcidtoname_downlevel.obj
 0002:00005c50       ??_C@_1M@EGPFDCPD@?$AAb?$AAe?$AA?9?$AAb?$AAy?$AA?$AA@ 000000018001bc50     libucrt:lcidtoname_downlevel.obj
 0002:00005c60       ??_C@_1M@PCMGMCGC@?$AAb?$AAg?$AA?9?$AAb?$AAg?$AA?$AA@ 000000018001bc60     libucrt:lcidtoname_downlevel.obj
 0002:00005c70       ??_C@_1M@BJBMFGOB@?$AAb?$AAn?$AA?9?$AAi?$AAn?$AA?$AA@ 000000018001bc70     libucrt:lcidtoname_downlevel.obj
 0002:00005c80       ??_C@_1BG@EAKMMACD@?$AAb?$AAs?$AA?9?$AAb?$AAa?$AA?9?$AAl?$AAa?$AAt?$AAn?$AA?$AA@ 000000018001bc80     libucrt:lcidtoname_downlevel.obj
 0002:00005c98       ??_C@_1M@KGADAODK@?$AAc?$AAa?$AA?9?$AAe?$AAs?$AA?$AA@ 000000018001bc98     libucrt:lcidtoname_downlevel.obj
 0002:00005ca8       ??_C@_1M@COAJPDHI@?$AAc?$AAs?$AA?9?$AAc?$AAz?$AA?$AA@ 000000018001bca8     libucrt:lcidtoname_downlevel.obj
 0002:00005cb8       ??_C@_1M@DHBHFONH@?$AAc?$AAy?$AA?9?$AAg?$AAb?$AA?$AA@ 000000018001bcb8     libucrt:lcidtoname_downlevel.obj
 0002:00005cc8       ??_C@_1M@IMGKELGA@?$AAd?$AAa?$AA?9?$AAd?$AAk?$AA?$AA@ 000000018001bcc8     libucrt:lcidtoname_downlevel.obj
 0002:00005cd8       ??_C@_1M@NNDGDNGA@?$AAd?$AAe?$AA?9?$AAa?$AAt?$AA?$AA@ 000000018001bcd8     libucrt:lcidtoname_downlevel.obj
 0002:00005ce8       ??_C@_1M@IKDBHEEM@?$AAd?$AAe?$AA?9?$AAc?$AAh?$AA?$AA@ 000000018001bce8     libucrt:lcidtoname_downlevel.obj
 0002:00005cf8       ??_C@_1M@GFFOJMCJ@?$AAd?$AAe?$AA?9?$AAd?$AAe?$AA?$AA@ 000000018001bcf8     libucrt:lcidtoname_downlevel.obj
 0002:00005d08       ??_C@_1M@MDNLKBPM@?$AAd?$AAe?$AA?9?$AAl?$AAi?$AA?$AA@ 000000018001bd08     libucrt:lcidtoname_downlevel.obj
 0002:00005d18       ??_C@_1M@NJBEEJNL@?$AAd?$AAe?$AA?9?$AAl?$AAu?$AA?$AA@ 000000018001bd18     libucrt:lcidtoname_downlevel.obj
 0002:00005d28       ??_C@_1O@GNNELBAP@?$AAd?$AAi?$AAv?$AA?9?$AAm?$AAv?$AA?$AA@ 000000018001bd28     libucrt:lcidtoname_downlevel.obj
 0002:00005d38       ??_C@_1M@EJLEOGAE@?$AAe?$AAl?$AA?9?$AAg?$AAr?$AA?$AA@ 000000018001bd38     libucrt:lcidtoname_downlevel.obj
 0002:00005d48       ??_C@_1M@GMPONJN@?$AAe?$AAn?$AA?9?$AAa?$AAu?$AA?$AA@ 000000018001bd48     libucrt:lcidtoname_downlevel.obj
 0002:00005d58       ??_C@_1M@NIDIIPGF@?$AAe?$AAn?$AA?9?$AAb?$AAz?$AA?$AA@ 000000018001bd58     libucrt:lcidtoname_downlevel.obj
 0002:00005d68       ??_C@_1M@JEHMIMFO@?$AAe?$AAn?$AA?9?$AAc?$AAa?$AA?$AA@ 000000018001bd68     libucrt:lcidtoname_downlevel.obj
 0002:00005d78       ??_C@_1M@IGMJCDLA@?$AAe?$AAn?$AA?9?$AAc?$AAb?$AA?$AA@ 000000018001bd78     libucrt:lcidtoname_downlevel.obj
 0002:00005d88       ??_C@_1M@BNFIGBKG@?$AAe?$AAn?$AA?9?$AAg?$AAb?$AA?$AA@ 000000018001bd88     libucrt:lcidtoname_downlevel.obj
 0002:00005d98       ??_C@_1M@LKIFDIGP@?$AAe?$AAn?$AA?9?$AAi?$AAe?$AA?$AA@ 000000018001bd98     libucrt:lcidtoname_downlevel.obj
 0002:00005da8       ??_C@_1M@PJKFGCCO@?$AAe?$AAn?$AA?9?$AAj?$AAm?$AA?$AA@ 000000018001bda8     libucrt:lcidtoname_downlevel.obj
 0002:00005db8       ??_C@_1M@KPPKEPBO@?$AAe?$AAn?$AA?9?$AAn?$AAz?$AA?$AA@ 000000018001bdb8     libucrt:lcidtoname_downlevel.obj
 0002:00005dc8       ??_C@_1M@GMDGLDOB@?$AAe?$AAn?$AA?9?$AAp?$AAh?$AA?$AA@ 000000018001bdc8     libucrt:lcidtoname_downlevel.obj
 0002:00005dd8       ??_C@_1M@ONGIBJNA@?$AAe?$AAn?$AA?9?$AAt?$AAt?$AA?$AA@ 000000018001bdd8     libucrt:lcidtoname_downlevel.obj
 0002:00005de8       ??_C@_1M@LLODPCMM@?$AAe?$AAn?$AA?9?$AAu?$AAs?$AA?$AA@ 000000018001bde8     libucrt:lcidtoname_downlevel.obj
 0002:00005df8       ??_C@_1M@LAKFNPAN@?$AAe?$AAn?$AA?9?$AAz?$AAa?$AA?$AA@ 000000018001bdf8     libucrt:lcidtoname_downlevel.obj
 0002:00005e08       ??_C@_1M@MFNHNHEO@?$AAe?$AAn?$AA?9?$AAz?$AAw?$AA?$AA@ 000000018001be08     libucrt:lcidtoname_downlevel.obj
 0002:00005e18       ??_C@_1M@EJEINPHM@?$AAe?$AAs?$AA?9?$AAa?$AAr?$AA?$AA@ 000000018001be18     libucrt:lcidtoname_downlevel.obj
 0002:00005e28       ??_C@_1M@GNKPCCJA@?$AAe?$AAs?$AA?9?$AAb?$AAo?$AA?$AA@ 000000018001be28     libucrt:lcidtoname_downlevel.obj
 0002:00005e38       ??_C@_1M@LEEGFONL@?$AAe?$AAs?$AA?9?$AAc?$AAl?$AA?$AA@ 000000018001be38     libucrt:lcidtoname_downlevel.obj
 0002:00005e48       ??_C@_1M@KGPDPBDF@?$AAe?$AAs?$AA?9?$AAc?$AAo?$AA?$AA@ 000000018001be48     libucrt:lcidtoname_downlevel.obj
 0002:00005e58       ??_C@_1M@EIAHOHH@?$AAe?$AAs?$AA?9?$AAc?$AAr?$AA?$AA@ 000000018001be58     libucrt:lcidtoname_downlevel.obj
 0002:00005e68       ??_C@_1M@LLPGMBIN@?$AAe?$AAs?$AA?9?$AAd?$AAo?$AA?$AA@ 000000018001be68     libucrt:lcidtoname_downlevel.obj
 0002:00005e78       ??_C@_1M@DKHMKNJA@?$AAe?$AAs?$AA?9?$AAe?$AAc?$AA?$AA@ 000000018001be78     libucrt:lcidtoname_downlevel.obj
 0002:00005e88       ??_C@_1M@GKGFPKAP@?$AAe?$AAs?$AA?9?$AAe?$AAs?$AA?$AA@ 000000018001be88     libucrt:lcidtoname_downlevel.obj
 0002:00005e98       ??_C@_1M@LKHKGDLN@?$AAe?$AAs?$AA?9?$AAg?$AAt?$AA?$AA@ 000000018001be98     libucrt:lcidtoname_downlevel.obj
 0002:00005ea8       ??_C@_1M@HEIIGGJD@?$AAe?$AAs?$AA?9?$AAh?$AAn?$AA?$AA@ 000000018001bea8     libucrt:lcidtoname_downlevel.obj
 0002:00005eb8       ??_C@_1M@FBDHPPGD@?$AAe?$AAs?$AA?9?$AAm?$AAx?$AA?$AA@ 000000018001beb8     libucrt:lcidtoname_downlevel.obj
 0002:00005ec8       ??_C@_1M@DPAGLNDH@?$AAe?$AAs?$AA?9?$AAn?$AAi?$AA?$AA@ 000000018001bec8     libucrt:lcidtoname_downlevel.obj
 0002:00005ed8       ??_C@_1M@MDGOPGDD@?$AAe?$AAs?$AA?9?$AAp?$AAa?$AA?$AA@ 000000018001bed8     libucrt:lcidtoname_downlevel.obj
 0002:00005ee8       ??_C@_1M@EMAMGBGE@?$AAe?$AAs?$AA?9?$AAp?$AAe?$AA?$AA@ 000000018001bee8     libucrt:lcidtoname_downlevel.obj
 0002:00005ef8       ??_C@_1M@IBMCAOEC@?$AAe?$AAs?$AA?9?$AAp?$AAr?$AA?$AA@ 000000018001bef8     libucrt:lcidtoname_downlevel.obj
 0002:00005f08       ??_C@_1M@FGMDIJED@?$AAe?$AAs?$AA?9?$AAp?$AAy?$AA?$AA@ 000000018001bf08     libucrt:lcidtoname_downlevel.obj
 0002:00005f18       ??_C@_1M@IIDEOLLL@?$AAe?$AAs?$AA?9?$AAs?$AAv?$AA?$AA@ 000000018001bf18     libucrt:lcidtoname_downlevel.obj
 0002:00005f28       ??_C@_1M@GAOBIPA@?$AAe?$AAs?$AA?9?$AAu?$AAy?$AA?$AA@ 000000018001bf28     libucrt:lcidtoname_downlevel.obj
 0002:00005f38       ??_C@_1M@JKFFICHJ@?$AAe?$AAs?$AA?9?$AAv?$AAe?$AA?$AA@ 000000018001bf38     libucrt:lcidtoname_downlevel.obj
 0002:00005f48       ??_C@_1M@PNMLOJDF@?$AAe?$AAt?$AA?9?$AAe?$AAe?$AA?$AA@ 000000018001bf48     libucrt:lcidtoname_downlevel.obj
 0002:00005f58       ??_C@_1M@GHHLIKEI@?$AAe?$AAu?$AA?9?$AAe?$AAs?$AA?$AA@ 000000018001bf58     libucrt:lcidtoname_downlevel.obj
 0002:00005f68       ??_C@_1M@PBNONODE@?$AAf?$AAa?$AA?9?$AAi?$AAr?$AA?$AA@ 000000018001bf68     libucrt:lcidtoname_downlevel.obj
 0002:00005f78       ??_C@_1M@JEEHPMIL@?$AAf?$AAi?$AA?9?$AAf?$AAi?$AA?$AA@ 000000018001bf78     libucrt:lcidtoname_downlevel.obj
 0002:00005f88       ??_C@_1M@LMDCNDBA@?$AAf?$AAo?$AA?9?$AAf?$AAo?$AA?$AA@ 000000018001bf88     libucrt:lcidtoname_downlevel.obj
 0002:00005f98       ??_C@_1M@JKEOHLDK@?$AAf?$AAr?$AA?9?$AAb?$AAe?$AA?$AA@ 000000018001bf98     libucrt:lcidtoname_downlevel.obj
 0002:00005fa8       ??_C@_1M@NOHADPMI@?$AAf?$AAr?$AA?9?$AAc?$AAa?$AA?$AA@ 000000018001bfa8     libucrt:lcidtoname_downlevel.obj
 0002:00005fb8       ??_C@_1M@KDHIHAEC@?$AAf?$AAr?$AA?9?$AAc?$AAh?$AA?$AA@ 000000018001bfb8     libucrt:lcidtoname_downlevel.obj
 0002:00005fc8       ??_C@_1M@MMBBFGAK@?$AAf?$AAr?$AA?9?$AAf?$AAr?$AA?$AA@ 000000018001bfc8     libucrt:lcidtoname_downlevel.obj
 0002:00005fd8       ??_C@_1M@PAFNENNF@?$AAf?$AAr?$AA?9?$AAl?$AAu?$AA?$AA@ 000000018001bfd8     libucrt:lcidtoname_downlevel.obj
 0002:00005fe8       ??_C@_1M@EOHDJGDD@?$AAf?$AAr?$AA?9?$AAm?$AAc?$AA?$AA@ 000000018001bfe8     libucrt:lcidtoname_downlevel.obj
 0002:00005ff8       ??_C@_1M@FAPLLOPF@?$AAg?$AAl?$AA?9?$AAe?$AAs?$AA?$AA@ 000000018001bff8     libucrt:lcidtoname_downlevel.obj
 0002:00006008       ??_C@_1M@FOPBFLOO@?$AAg?$AAu?$AA?9?$AAi?$AAn?$AA?$AA@ 000000018001c008     libucrt:lcidtoname_downlevel.obj
 0002:00006018       ??_C@_1M@KBMCINPM@?$AAh?$AAe?$AA?9?$AAi?$AAl?$AA?$AA@ 000000018001c018     libucrt:lcidtoname_downlevel.obj
 0002:00006028       ??_C@_1M@BBPHKFPJ@?$AAh?$AAi?$AA?9?$AAi?$AAn?$AA?$AA@ 000000018001c028     libucrt:lcidtoname_downlevel.obj
 0002:00006038       ??_C@_1M@PMBNDPHD@?$AAh?$AAr?$AA?9?$AAb?$AAa?$AA?$AA@ 000000018001c038     libucrt:lcidtoname_downlevel.obj
 0002:00006048       ??_C@_1M@BPCKOEGE@?$AAh?$AAr?$AA?9?$AAh?$AAr?$AA?$AA@ 000000018001c048     libucrt:lcidtoname_downlevel.obj
 0002:00006058       ??_C@_1M@GACBMHKE@?$AAh?$AAu?$AA?9?$AAh?$AAu?$AA?$AA@ 000000018001c058     libucrt:lcidtoname_downlevel.obj
 0002:00006068       ??_C@_1M@MILPAJJC@?$AAh?$AAy?$AA?9?$AAa?$AAm?$AA?$AA@ 000000018001c068     libucrt:lcidtoname_downlevel.obj
 0002:00006078       ??_C@_1M@BABBICEC@?$AAi?$AAd?$AA?9?$AAi?$AAd?$AA?$AA@ 000000018001c078     libucrt:lcidtoname_downlevel.obj
 0002:00006088       ??_C@_1M@BIKNHHPF@?$AAi?$AAs?$AA?9?$AAi?$AAs?$AA?$AA@ 000000018001c088     libucrt:lcidtoname_downlevel.obj
 0002:00006098       ??_C@_1M@NMPCJPHE@?$AAi?$AAt?$AA?9?$AAc?$AAh?$AA?$AA@ 000000018001c098     libucrt:lcidtoname_downlevel.obj
 0002:000060a8       ??_C@_1M@GHKGFEDF@?$AAi?$AAt?$AA?9?$AAi?$AAt?$AA?$AA@ 000000018001c0a8     libucrt:lcidtoname_downlevel.obj
 0002:000060b8       ??_C@_1M@NIEJCJJA@?$AAj?$AAa?$AA?9?$AAj?$AAp?$AA?$AA@ 000000018001c0b8     libucrt:lcidtoname_downlevel.obj
 0002:000060c8       ??_C@_1M@JILFNBIM@?$AAk?$AAa?$AA?9?$AAg?$AAe?$AA?$AA@ 000000018001c0c8     libucrt:lcidtoname_downlevel.obj
 0002:000060d8       ??_C@_1M@PACPMGPH@?$AAk?$AAk?$AA?9?$AAk?$AAz?$AA?$AA@ 000000018001c0d8     libucrt:lcidtoname_downlevel.obj
 0002:000060e8       ??_C@_1M@IELFGMHA@?$AAk?$AAn?$AA?9?$AAi?$AAn?$AA?$AA@ 000000018001c0e8     libucrt:lcidtoname_downlevel.obj
 0002:000060f8       ??_C@_1O@IBBJHCH@?$AAk?$AAo?$AAk?$AA?9?$AAi?$AAn?$AA?$AA@ 000000018001c0f8     libucrt:lcidtoname_downlevel.obj
 0002:00006108       ??_C@_1M@DMHAEOGC@?$AAk?$AAo?$AA?9?$AAk?$AAr?$AA?$AA@ 000000018001c108     libucrt:lcidtoname_downlevel.obj
 0002:00006118       ??_C@_1M@HBAHBIGA@?$AAk?$AAy?$AA?9?$AAk?$AAg?$AA?$AA@ 000000018001c118     libucrt:lcidtoname_downlevel.obj
 0002:00006128       ??_C@_1M@KPMILCJG@?$AAl?$AAt?$AA?9?$AAl?$AAt?$AA?$AA@ 000000018001c128     libucrt:lcidtoname_downlevel.obj
 0002:00006138       ??_C@_1M@BDEKKCA@?$AAl?$AAv?$AA?9?$AAl?$AAv?$AA?$AA@ 000000018001c138     libucrt:lcidtoname_downlevel.obj
 0002:00006148       ??_C@_1M@ELCKCCJJ@?$AAm?$AAi?$AA?9?$AAn?$AAz?$AA?$AA@ 000000018001c148     libucrt:lcidtoname_downlevel.obj
 0002:00006158       ??_C@_1M@CBOOLAPA@?$AAm?$AAk?$AA?9?$AAm?$AAk?$AA?$AA@ 000000018001c158     libucrt:lcidtoname_downlevel.obj
 0002:00006168       ??_C@_1M@GPHNBJKN@?$AAm?$AAl?$AA?9?$AAi?$AAn?$AA?$AA@ 000000018001c168     libucrt:lcidtoname_downlevel.obj
 0002:00006178       ??_C@_1M@PABJILIG@?$AAm?$AAn?$AA?9?$AAm?$AAn?$AA?$AA@ 000000018001c178     libucrt:lcidtoname_downlevel.obj
 0002:00006188       ??_C@_1M@FGBKKIPG@?$AAm?$AAr?$AA?9?$AAi?$AAn?$AA?$AA@ 000000018001c188     libucrt:lcidtoname_downlevel.obj
 0002:00006198       ??_C@_1M@NDBPDDAL@?$AAm?$AAs?$AA?9?$AAb?$AAn?$AA?$AA@ 000000018001c198     libucrt:lcidtoname_downlevel.obj
 0002:000061a8       ??_C@_1M@OPIHOOPI@?$AAm?$AAs?$AA?9?$AAm?$AAy?$AA?$AA@ 000000018001c1a8     libucrt:lcidtoname_downlevel.obj
 0002:000061b8       ??_C@_1M@PPDBCNFM@?$AAm?$AAt?$AA?9?$AAm?$AAt?$AA?$AA@ 000000018001c1b8     libucrt:lcidtoname_downlevel.obj
 0002:000061c8       ??_C@_1M@KDJDKMDD@?$AAn?$AAb?$AA?9?$AAn?$AAo?$AA?$AA@ 000000018001c1c8     libucrt:lcidtoname_downlevel.obj
 0002:000061d8       ??_C@_1M@KFCFLMJP@?$AAn?$AAl?$AA?9?$AAb?$AAe?$AA?$AA@ 000000018001c1d8     libucrt:lcidtoname_downlevel.obj
 0002:000061e8       ??_C@_1M@KPOPDDGO@?$AAn?$AAl?$AA?9?$AAn?$AAl?$AA?$AA@ 000000018001c1e8     libucrt:lcidtoname_downlevel.obj
 0002:000061f8       ??_C@_1M@LJKPEMLN@?$AAn?$AAn?$AA?9?$AAn?$AAo?$AA?$AA@ 000000018001c1f8     libucrt:lcidtoname_downlevel.obj
 0002:00006208       ??_C@_1M@BDGHHBFL@?$AAn?$AAs?$AA?9?$AAz?$AAa?$AA?$AA@ 000000018001c208     libucrt:lcidtoname_downlevel.obj
 0002:00006218       ??_C@_1M@IDEHOAP@?$AAp?$AAa?$AA?9?$AAi?$AAn?$AA?$AA@ 000000018001c218     libucrt:lcidtoname_downlevel.obj
 0002:00006228       ??_C@_1M@HDBKGOGH@?$AAp?$AAl?$AA?9?$AAp?$AAl?$AA?$AA@ 000000018001c228     libucrt:lcidtoname_downlevel.obj
 0002:00006238       ??_C@_1M@LJLLCMEH@?$AAp?$AAt?$AA?9?$AAb?$AAr?$AA?$AA@ 000000018001c238     libucrt:lcidtoname_downlevel.obj
 0002:00006248       ??_C@_1M@NCMONAAL@?$AAp?$AAt?$AA?9?$AAp?$AAt?$AA?$AA@ 000000018001c248     libucrt:lcidtoname_downlevel.obj
 0002:00006258       ??_C@_1O@EAKMAJDN@?$AAq?$AAu?$AAz?$AA?9?$AAb?$AAo?$AA?$AA@ 000000018001c258     libucrt:lcidtoname_downlevel.obj
 0002:00006268       ??_C@_1O@BHHPIGDN@?$AAq?$AAu?$AAz?$AA?9?$AAe?$AAc?$AA?$AA@ 000000018001c268     libucrt:lcidtoname_downlevel.obj
 0002:00006278       ??_C@_1O@GBAPEKMJ@?$AAq?$AAu?$AAz?$AA?9?$AAp?$AAe?$AA?$AA@ 000000018001c278     libucrt:lcidtoname_downlevel.obj
 0002:00006288       ??_C@_1M@CLGLEFBO@?$AAr?$AAo?$AA?9?$AAr?$AAo?$AA?$AA@ 000000018001c288     libucrt:lcidtoname_downlevel.obj
 0002:00006298       ??_C@_1M@CEEDODME@?$AAr?$AAu?$AA?9?$AAr?$AAu?$AA?$AA@ 000000018001c298     libucrt:lcidtoname_downlevel.obj
 0002:000062a8       ??_C@_1M@HPKKKMPP@?$AAs?$AAa?$AA?9?$AAi?$AAn?$AA?$AA@ 000000018001c2a8     libucrt:lcidtoname_downlevel.obj
 0002:000062b8       ??_C@_1M@BKMAIGOJ@?$AAs?$AAe?$AA?9?$AAf?$AAi?$AA?$AA@ 000000018001c2b8     libucrt:lcidtoname_downlevel.obj
 0002:000062c8       ??_C@_1M@NDPIFLFI@?$AAs?$AAe?$AA?9?$AAn?$AAo?$AA?$AA@ 000000018001c2c8     libucrt:lcidtoname_downlevel.obj
 0002:000062d8       ??_C@_1M@DANKKHJ@?$AAs?$AAe?$AA?9?$AAs?$AAe?$AA?$AA@ 000000018001c2d8     libucrt:lcidtoname_downlevel.obj
 0002:000062e8       ??_C@_1M@PNBLONPJ@?$AAs?$AAk?$AA?9?$AAs?$AAk?$AA?$AA@ 000000018001c2e8     libucrt:lcidtoname_downlevel.obj
 0002:000062f8       ??_C@_1M@LFMODOAL@?$AAs?$AAl?$AA?9?$AAs?$AAi?$AA?$AA@ 000000018001c2f8     libucrt:lcidtoname_downlevel.obj
 0002:00006308       ??_C@_1O@DFKOMPG@?$AAs?$AAm?$AAa?$AA?9?$AAn?$AAo?$AA?$AA@ 000000018001c308     libucrt:lcidtoname_downlevel.obj
 0002:00006318       ??_C@_1O@NDKPBNNH@?$AAs?$AAm?$AAa?$AA?9?$AAs?$AAe?$AA?$AA@ 000000018001c318     libucrt:lcidtoname_downlevel.obj
 0002:00006328       ??_C@_1O@PLLKBHAB@?$AAs?$AAm?$AAj?$AA?9?$AAn?$AAo?$AA?$AA@ 000000018001c328     libucrt:lcidtoname_downlevel.obj
 0002:00006338       ??_C@_1O@CLEPOGCA@?$AAs?$AAm?$AAj?$AA?9?$AAs?$AAe?$AA?$AA@ 000000018001c338     libucrt:lcidtoname_downlevel.obj
 0002:00006348       ??_C@_1O@DLGJGKMK@?$AAs?$AAm?$AAn?$AA?9?$AAf?$AAi?$AA?$AA@ 000000018001c348     libucrt:lcidtoname_downlevel.obj
 0002:00006358       ??_C@_1O@OJDJGAJC@?$AAs?$AAm?$AAs?$AA?9?$AAf?$AAi?$AA?$AA@ 000000018001c358     libucrt:lcidtoname_downlevel.obj
 0002:00006368       ??_C@_1M@BOFOGHPB@?$AAs?$AAq?$AA?9?$AAa?$AAl?$AA?$AA@ 000000018001c368     libucrt:lcidtoname_downlevel.obj
 0002:00006378       ??_C@_1BG@LJBBIPGB@?$AAs?$AAr?$AA?9?$AAb?$AAa?$AA?9?$AAc?$AAy?$AAr?$AAl?$AA?$AA@ 000000018001c378     libucrt:lcidtoname_downlevel.obj
 0002:00006390       ??_C@_1BG@JLBENFOE@?$AAs?$AAr?$AA?9?$AAb?$AAa?$AA?9?$AAl?$AAa?$AAt?$AAn?$AA?$AA@ 000000018001c390     libucrt:lcidtoname_downlevel.obj
 0002:000063a8       ??_C@_1BG@KODPNHE@?$AAs?$AAr?$AA?9?$AAs?$AAp?$AA?9?$AAc?$AAy?$AAr?$AAl?$AA?$AA@ 000000018001c3a8     libucrt:lcidtoname_downlevel.obj
 0002:000063c0       ??_C@_1BG@CIOGKHPB@?$AAs?$AAr?$AA?9?$AAs?$AAp?$AA?9?$AAl?$AAa?$AAt?$AAn?$AA?$AA@ 000000018001c3c0     libucrt:lcidtoname_downlevel.obj
 0002:000063d8       ??_C@_1M@NGFJLMAC@?$AAs?$AAv?$AA?9?$AAf?$AAi?$AA?$AA@ 000000018001c3d8     libucrt:lcidtoname_downlevel.obj
 0002:000063e8       ??_C@_1M@MPJEJAJC@?$AAs?$AAv?$AA?9?$AAs?$AAe?$AA?$AA@ 000000018001c3e8     libucrt:lcidtoname_downlevel.obj
 0002:000063f8       ??_C@_1M@MPNDHLFK@?$AAs?$AAw?$AA?9?$AAk?$AAe?$AA?$AA@ 000000018001c3f8     libucrt:lcidtoname_downlevel.obj
 0002:00006408       ??_C@_1O@KOHBJJI@?$AAs?$AAy?$AAr?$AA?9?$AAs?$AAy?$AA?$AA@ 000000018001c408     libucrt:lcidtoname_downlevel.obj
 0002:00006418       ??_C@_1M@LDCEFHA@?$AAt?$AAa?$AA?9?$AAi?$AAn?$AA?$AA@ 000000018001c418     libucrt:lcidtoname_downlevel.obj
 0002:00006428       ??_C@_1M@CNJOFAK@?$AAt?$AAe?$AA?9?$AAi?$AAn?$AA?$AA@ 000000018001c428     libucrt:lcidtoname_downlevel.obj
 0002:00006438       ??_C@_1M@GNAECACD@?$AAt?$AAh?$AA?9?$AAt?$AAh?$AA?$AA@ 000000018001c438     libucrt:lcidtoname_downlevel.obj
 0002:00006448       ??_C@_1M@CHBIHOJO@?$AAt?$AAn?$AA?9?$AAz?$AAa?$AA?$AA@ 000000018001c448     libucrt:lcidtoname_downlevel.obj
 0002:00006458       ??_C@_1M@GCCMIGPJ@?$AAt?$AAr?$AA?9?$AAt?$AAr?$AA?$AA@ 000000018001c458     libucrt:lcidtoname_downlevel.obj
 0002:00006468       ??_C@_1M@CELMCNBK@?$AAt?$AAt?$AA?9?$AAr?$AAu?$AA?$AA@ 000000018001c468     libucrt:lcidtoname_downlevel.obj
 0002:00006478       ??_C@_1M@KLMCELGA@?$AAu?$AAk?$AA?9?$AAu?$AAa?$AA?$AA@ 000000018001c478     libucrt:lcidtoname_downlevel.obj
 0002:00006488       ??_C@_1M@EPAJJAJF@?$AAu?$AAr?$AA?9?$AAp?$AAk?$AA?$AA@ 000000018001c488     libucrt:lcidtoname_downlevel.obj
 0002:00006498       ??_C@_1BG@GEGPMCDJ@?$AAu?$AAz?$AA?9?$AAu?$AAz?$AA?9?$AAc?$AAy?$AAr?$AAl?$AA?$AA@ 000000018001c498     libucrt:lcidtoname_downlevel.obj
 0002:000064b0       ??_C@_1BG@EGGKJILM@?$AAu?$AAz?$AA?9?$AAu?$AAz?$AA?9?$AAl?$AAa?$AAt?$AAn?$AA?$AA@ 000000018001c4b0     libucrt:lcidtoname_downlevel.obj
 0002:000064c8       ??_C@_1M@GFOCLFF@?$AAv?$AAi?$AA?9?$AAv?$AAn?$AA?$AA@ 000000018001c4c8     libucrt:lcidtoname_downlevel.obj
 0002:000064d8       ??_C@_1M@CPAMEDFI@?$AAx?$AAh?$AA?9?$AAz?$AAa?$AA?$AA@ 000000018001c4d8     libucrt:lcidtoname_downlevel.obj
 0002:000064e8       ??_C@_1O@EBKIFIGN@?$AAz?$AAh?$AA?9?$AAc?$AAh?$AAs?$AA?$AA@ 000000018001c4e8     libucrt:lcidtoname_downlevel.obj
 0002:000064f8       ??_C@_1O@NMHPGANE@?$AAz?$AAh?$AA?9?$AAc?$AAh?$AAt?$AA?$AA@ 000000018001c4f8     libucrt:lcidtoname_downlevel.obj
 0002:00006508       ??_C@_1M@LPINJOMC@?$AAz?$AAh?$AA?9?$AAc?$AAn?$AA?$AA@ 000000018001c508     libucrt:lcidtoname_downlevel.obj
 0002:00006518       ??_C@_1M@OCJEJODD@?$AAz?$AAh?$AA?9?$AAh?$AAk?$AA?$AA@ 000000018001c518     libucrt:lcidtoname_downlevel.obj
 0002:00006528       ??_C@_1M@DNDLJINH@?$AAz?$AAh?$AA?9?$AAm?$AAo?$AA?$AA@ 000000018001c528     libucrt:lcidtoname_downlevel.obj
 0002:00006538       ??_C@_1M@MBFDNDND@?$AAz?$AAh?$AA?9?$AAs?$AAg?$AA?$AA@ 000000018001c538     libucrt:lcidtoname_downlevel.obj
 0002:00006548       ??_C@_1M@IMEPLEPE@?$AAz?$AAh?$AA?9?$AAt?$AAw?$AA?$AA@ 000000018001c548     libucrt:lcidtoname_downlevel.obj
 0002:00006558       ??_C@_1M@BBGHNHJP@?$AAz?$AAu?$AA?9?$AAz?$AAa?$AA?$AA@ 000000018001c558     libucrt:lcidtoname_downlevel.obj
 0002:00006568       __real@3ff0000000000000    000000018001c568     libucrt:ceil.obj
 0002:000067c0       __log10_256_lead           000000018001c7c0     libucrt:log10_256_lead_tail_table.obj
 0002:00006fd0       __log10_256_tail           000000018001cfd0     libucrt:log10_256_lead_tail_table.obj
 0002:000077e0       __log_F_inv_qword          000000018001d7e0     libucrt:log_f_inv_qword_table.obj
 0002:00007ff0       ??_C@_05HGHHAHAP@log10?$AA@ 000000018001dff0     libucrt:log_special.obj
 0002:00008010       ??_C@_1BA@BALFACEM@?$AAC?$AAO?$AAN?$AAO?$AAU?$AAT?$AA$?$AA?$AA@ 000000018001e010     libucrt:initcon.obj
 0002:00008020       ??_C@_1BK@DBDEIDLH@?$AAK?$AAE?$AAR?$AAN?$AAE?$AAL?$AA3?$AA2?$AA?4?$AAD?$AAL?$AAL?$AA?$AA@ 000000018001e020     DelayImp:delayhlp.obj
 0002:00008040       ??_C@_0BI@OMNLIJDB@AcquireSRWLockExclusive?$AA@ 000000018001e040     DelayImp:delayhlp.obj
 0002:00008058       ??_C@_0BI@HMIEPCNJ@ReleaseSRWLockExclusive?$AA@ 000000018001e058     DelayImp:delayhlp.obj
 0002:00008070       _load_config_used          000000018001e070     LIBCMT:loadcfg.obj
 0002:00008108       ??_C@_0O@JFCNHENP@?4?4?2src?2rfc?4cc?$AA@ 000000018001e108     rfc.obj
 0002:00008118       ??_C@_03BNAHMHAC@rfc?$AA@  000000018001e118     rfc.obj
 0002:0000811c       ??_C@_04NDFOBODE@code?$AA@ 000000018001e11c     error.obj
 0002:00008124       ??_C@_03ICHNJLJF@key?$AA@  000000018001e124     error.obj
 0002:00008128       ??_C@_07ONPBMBOP@message?$AA@ 000000018001e128     error.obj
 0002:00008130       ??_C@_0N@MHLGAKMN@abapMsgClass?$AA@ 000000018001e130     error.obj
 0002:00008140       ??_C@_0M@BMNFMJFC@abapMsgType?$AA@ 000000018001e140     error.obj
 0002:00008150       ??_C@_0O@IIOLCDNJ@abapMsgNumber?$AA@ 000000018001e150     error.obj
 0002:00008160       ??_C@_09KFMFDIEM@abapMsgV1?$AA@ 000000018001e160     error.obj
 0002:00008170       ??_C@_09IOOIGLIP@abapMsgV2?$AA@ 000000018001e170     error.obj
 0002:00008180       ??_C@_09JHPDFKMO@abapMsgV3?$AA@ 000000018001e180     error.obj
 0002:00008190       ??_C@_09NILCMMAJ@abapMsgV4?$AA@ 000000018001e190     error.obj
 0002:000081a0       ??_C@_0EM@HHDIGIFB@node?9rfc?5internal?5error?3?5Error?5h@ 000000018001e1a0     error.obj
 0002:000081f0       ??_C@_0DB@OBKOENNE@node?9rfc?5internal?5error?3?5Unknown@ 000000018001e1f0     error.obj
 0002:00008221       ??_C@_00CNPNBAHC@?$AA@     000000018001e221     rfcio.obj
 0002:00008228       ??_C@_0CE@PKCPFKOI@Unknown?5RFC?5type?5?$CFd?5when?5filling@ 000000018001e228     rfcio.obj
 0002:00008250       ??_C@_0CE@DPDLIJND@node?9rfc?5internal?5error?3?5wrapStr@ 000000018001e250     rfcio.obj
 0002:00008278       ??_C@_0BD@GHBPMLEA@FIXME?5UNKNOWN?5TYPE?$AA@ 000000018001e278     rfcio.obj
 0002:00008290       ??_C@_0CF@DLDJNEMD@Unknown?5RFC?5type?5?$CFd?5when?5wrappin@ 000000018001e290     rfcio.obj
 0002:000082b8       ??_C@_0BI@CFPLBAOH@invalid?5string?5position?$AA@ 000000018001e2b8     rfcio.obj
 0002:000082d0       ??_C@_0BA@JFNIOLAK@string?5too?5long?$AA@ 000000018001e2d0     rfcio.obj
 0002:000082e0       ??_C@_06PJIGMIJB@Client?$AA@ 000000018001e2e0     Client.obj
 0002:000082e8       ??_C@_07KAIBNCHO@connect?$AA@ 000000018001e2e8     Client.obj
 0002:000082f0       ??_C@_05LBOHBHFK@close?$AA@ 000000018001e2f0     Client.obj
 0002:000082f8       ??_C@_06IEGCHAII@reopen?$AA@ 000000018001e2f8     Client.obj
 0002:00008300       ??_C@_07BOOHCBLM@isAlive?$AA@ 000000018001e300     Client.obj
 0002:00008308       ??_C@_06HJMAOIE@invoke?$AA@ 000000018001e308     Client.obj
 0002:00008310       ??_C@_0L@DLJCENCO@getVersion?$AA@ 000000018001e310     Client.obj
 0002:00008320       ??_C@_0P@ICMNAFDB@connectionInfo?$AA@ 000000018001e320     Client.obj
 0002:00008330       ??_C@_04OONEELOO@ping?$AA@ 000000018001e330     Client.obj
 0002:00008338       ??_C@_0DM@JCMNKPDO@Use?5the?5new?5operator?5to?5create?5i@ 000000018001e338     Client.obj
 0002:00008378       ??_C@_0DB@FMDDDKEE@Please?5provide?5connection?5parame@ 000000018001e378     Client.obj
 0002:000083b0       ??_C@_0CI@OHDLKIK@Connection?5parameters?5must?5be?5an@ 000000018001e3b0     Client.obj
 0002:000083d8       ??_C@_0DD@MIDEHAEE@Third?5parameter?5for?5?8rstrip?8?5mus@ 000000018001e3d8     Client.obj
 0002:00008410       ??_C@_0CJ@HJMKGDJK@First?5Argument?5must?5be?5callback?5@ 000000018001e410     Client.obj
 0002:00008440       ??_C@_0EG@OEJCILNF@Please?5provide?5function?5module?0?5@ 000000018001e440     Client.obj
 0002:00008488       ??_C@_0DG@NEOMACNE@First?5parameter?5?$CIrfc?5function?5na@ 000000018001e488     Client.obj
 0002:000084c0       ??_C@_0DM@JOIODDHH@Second?5parameter?5?$CIrfc?5function?5a@ 000000018001e4c0     Client.obj
 0002:00008500       ??_C@_0CJ@JBGDKLPP@Third?5Argument?5must?5be?5callback?5@ 000000018001e500     Client.obj
 0002:0000852c       ??_C@_04EEHDLEKF@dest?$AA@ 000000018001e52c     Client.obj
 0002:00008534       ??_C@_04OODOLJMA@host?$AA@ 000000018001e534     Client.obj
 0002:00008540       ??_C@_0M@CCOONFMH@partnerHost?$AA@ 000000018001e540     Client.obj
 0002:00008550       ??_C@_09JDJHEGHC@sysNumber?$AA@ 000000018001e550     Client.obj
 0002:0000855c       ??_C@_05DABJLEBD@sysId?$AA@ 000000018001e55c     Client.obj
 0002:00008564       ??_C@_06DGDLPBAN@client?$AA@ 000000018001e564     Client.obj
 0002:0000856c       ??_C@_04CCHAHKJA@user?$AA@ 000000018001e56c     Client.obj
 0002:00008578       ??_C@_08JGCCIMAA@language?$AA@ 000000018001e578     Client.obj
 0002:00008584       ??_C@_05IMBNNINJ@trace?$AA@ 000000018001e584     Client.obj
 0002:00008590       ??_C@_0M@HLNIOBPE@isoLanguage?$AA@ 000000018001e590     Client.obj
 0002:000085a0       ??_C@_08HNEJCANG@codepage?$AA@ 000000018001e5a0     Client.obj
 0002:000085b0       ??_C@_0BA@LCLJGBKP@partnerCodepage?$AA@ 000000018001e5b0     Client.obj
 0002:000085c0       ??_C@_07GKHPGEAI@rfcRole?$AA@ 000000018001e5c0     Client.obj
 0002:000085c8       ??_C@_04GPMDFGEJ@type?$AA@ 000000018001e5c8     Client.obj
 0002:000085d0       ??_C@_0M@KDBDDKEO@partnerType?$AA@ 000000018001e5d0     Client.obj
 0002:000085dc       ??_C@_03JINJGFJE@rel?$AA@  000000018001e5dc     Client.obj
 0002:000085e0       ??_C@_0L@EEMCPHCA@partnerRel?$AA@ 000000018001e5e0     Client.obj
 0002:000085f0       ??_C@_09PENBODFM@kernelRel?$AA@ 000000018001e5f0     Client.obj
 0002:00008600       ??_C@_0L@JPGOFHPO@cpicConvId?$AA@ 000000018001e600     Client.obj
 0002:00008610       ??_C@_08FDPDAMFI@progName?$AA@ 000000018001e610     Client.obj
 0002:00008620       ??_C@_0BE@JAELDBHN@partnerBytesPerChar?$AA@ 000000018001e620     Client.obj
 0002:00008638       ??_C@_08FINKBBAF@reserved?$AA@ 000000018001e638     Client.obj
 0002:00008648       ??_7ObjectWrap@node@@6B@   000000018001e648     Client.obj
 0002:00008660       ??_7Client@@6B@            000000018001e660     Client.obj
 0002:00008678       ??_C@_08HCOMDCCD@iojs?4exe?$AA@ 000000018001e678     win_delay_load_hook.obj
 0002:00008688       ??_C@_08JDDNMFDB@node?4exe?$AA@ 000000018001e688     win_delay_load_hook.obj
 0002:000086f8       _tls_used                  000000018001e6f8     LIBCMT:tlssup.obj
 0002:00008720       ??_R4exception@std@@6B@    000000018001e720     libcpmt:xthrow.obj
 0002:00008748       ??_R3exception@std@@8      000000018001e748     libcpmt:xthrow.obj
 0002:00008760       ??_R2exception@std@@8      000000018001e760     libcpmt:xthrow.obj
 0002:00008770       ??_R1A@?0A@EA@exception@std@@8 000000018001e770     libcpmt:xthrow.obj
 0002:00008798       ??_R4bad_alloc@std@@6B@    000000018001e798     libcpmt:xthrow.obj
 0002:000087c0       ??_R3bad_alloc@std@@8      000000018001e7c0     libcpmt:xthrow.obj
 0002:000087d8       ??_R2bad_alloc@std@@8      000000018001e7d8     libcpmt:xthrow.obj
 0002:000087f0       ??_R1A@?0A@EA@bad_alloc@std@@8 000000018001e7f0     libcpmt:xthrow.obj
 0002:00008818       ??_R4logic_error@std@@6B@  000000018001e818     libcpmt:xthrow.obj
 0002:00008840       ??_R3logic_error@std@@8    000000018001e840     libcpmt:xthrow.obj
 0002:00008858       ??_R2logic_error@std@@8    000000018001e858     libcpmt:xthrow.obj
 0002:00008870       ??_R1A@?0A@EA@logic_error@std@@8 000000018001e870     libcpmt:xthrow.obj
 0002:00008898       ??_R4length_error@std@@6B@ 000000018001e898     libcpmt:xthrow.obj
 0002:000088c0       ??_R3length_error@std@@8   000000018001e8c0     libcpmt:xthrow.obj
 0002:000088d8       ??_R2length_error@std@@8   000000018001e8d8     libcpmt:xthrow.obj
 0002:000088f8       ??_R1A@?0A@EA@length_error@std@@8 000000018001e8f8     libcpmt:xthrow.obj
 0002:00008920       ??_R4out_of_range@std@@6B@ 000000018001e920     libcpmt:xthrow.obj
 0002:00008948       ??_R3out_of_range@std@@8   000000018001e948     libcpmt:xthrow.obj
 0002:00008960       ??_R2out_of_range@std@@8   000000018001e960     libcpmt:xthrow.obj
 0002:00008980       ??_R1A@?0A@EA@out_of_range@std@@8 000000018001e980     libcpmt:xthrow.obj
 0002:000089a8       ??_R4type_info@@6B@        000000018001e9a8     LIBCMT:std_type_info_static.obj
 0002:000089d0       ??_R3type_info@@8          000000018001e9d0     LIBCMT:std_type_info_static.obj
 0002:000089e8       ??_R2type_info@@8          000000018001e9e8     LIBCMT:std_type_info_static.obj
 0002:000089f8       ??_R1A@?0A@EA@type_info@@8 000000018001e9f8     LIBCMT:std_type_info_static.obj
 0002:00008a20       ??_R4bad_array_new_length@std@@6B@ 000000018001ea20     LIBCMT:throw_bad_alloc.obj
 0002:00008a48       ??_R3bad_array_new_length@std@@8 000000018001ea48     LIBCMT:throw_bad_alloc.obj
 0002:00008a60       ??_R2bad_array_new_length@std@@8 000000018001ea60     LIBCMT:throw_bad_alloc.obj
 0002:00008a80       ??_R1A@?0A@EA@bad_array_new_length@std@@8 000000018001ea80     LIBCMT:throw_bad_alloc.obj
 0002:00008aa8       ?_TraceLoggingMetadata@?1??_TlgWrite@__vcrt_trace_logging_provider@@YAJPEBU_TlgProvider_t@2@PEFBXPEBU_GUID@@2IPEAU_EVENT_DATA_DESCRIPTOR@@@Z@4U_TraceLoggingMetadata_t@2@B 000000018001eaa8     libvcruntime:telemetry.obj
 0002:00008b5b       ?_TraceLoggingMetadataEnd@?1??_TlgWrite@__vcrt_trace_logging_provider@@YAJPEBU_TlgProvider_t@2@PEFBXPEBU_GUID@@2IPEAU_EVENT_DATA_DESCRIPTOR@@@Z@4EB 000000018001eb5b     libvcruntime:telemetry.obj
 0002:00009028       __rtc_iaa                  000000018001f028     LIBCMT:_initsect_.obj
 0002:00009030       __rtc_izz                  000000018001f030     LIBCMT:_initsect_.obj
 0002:00009038       __rtc_taa                  000000018001f038     LIBCMT:_initsect_.obj
 0002:00009040       __rtc_tzz                  000000018001f040     LIBCMT:_initsect_.obj
 0002:00009f48       _TI2?AVbad_alloc@std@@     000000018001ff48     libcpmt:xthrow.obj
 0002:00009f68       _CTA2?AVbad_alloc@std@@    000000018001ff68     libcpmt:xthrow.obj
 0002:00009f80       _CT??_R0?AVbad_alloc@std@@@8??0bad_alloc@std@@QEAA@AEBV01@@Z24 000000018001ff80     libcpmt:xthrow.obj
 0002:00009fa8       _CT??_R0?AVexception@std@@@8??0exception@std@@QEAA@AEBV01@@Z24 000000018001ffa8     libcpmt:xthrow.obj
 0002:00009fd0       _CT??_R0?AVlogic_error@std@@@8??0logic_error@std@@QEAA@AEBV01@@Z24 000000018001ffd0     libcpmt:xthrow.obj
 0002:00009ff8       _TI3?AVlength_error@std@@  000000018001fff8     libcpmt:xthrow.obj
 0002:0000a018       _CTA3?AVlength_error@std@@ 0000000180020018     libcpmt:xthrow.obj
 0002:0000a038       _CT??_R0?AVlength_error@std@@@8??0length_error@std@@QEAA@AEBV01@@Z24 0000000180020038     libcpmt:xthrow.obj
 0002:0000a060       _TI3?AVout_of_range@std@@  0000000180020060     libcpmt:xthrow.obj
 0002:0000a080       _CTA3?AVout_of_range@std@@ 0000000180020080     libcpmt:xthrow.obj
 0002:0000a0a0       _CT??_R0?AVout_of_range@std@@@8??0out_of_range@std@@QEAA@AEBV01@@Z24 00000001800200a0     libcpmt:xthrow.obj
 0002:0000a0c8       _TI3?AVbad_array_new_length@std@@ 00000001800200c8     LIBCMT:throw_bad_alloc.obj
 0002:0000a0e8       _CTA3?AVbad_array_new_length@std@@ 00000001800200e8     LIBCMT:throw_bad_alloc.obj
 0002:0000a108       _CT??_R0?AVbad_array_new_length@std@@@8??0bad_array_new_length@std@@QEAA@AEBV01@@Z24 0000000180020108     LIBCMT:throw_bad_alloc.obj
 0002:0000a12c       __DELAY_IMPORT_DESCRIPTOR_node_exe 000000018002012c     node:node.exe
 0002:0000a14c       __NULL_DELAY_IMPORT_DESCRIPTOR 000000018002014c     node:node.exe
 0002:0000a358       \177node_NULL_THUNK_DATA_DLN 0000000180020358     node:node.exe
 0002:0000b0b8       \177node_NULL_THUNK_DATA_DLB 00000001800210b8     node:node.exe
 0002:0000b2f4       __IMPORT_DESCRIPTOR_sapnwrfc 00000001800212f4     sapnwrfc:sapnwrfc.dll
 0002:0000b308       __IMPORT_DESCRIPTOR_KERNEL32 0000000180021308     kernel32:KERNEL32.dll
 0002:0000b31c       __IMPORT_DESCRIPTOR_ADVAPI32 000000018002131c     advapi32:ADVAPI32.dll
 0002:0000b330       __NULL_IMPORT_DESCRIPTOR   0000000180021330     sapnwrfc:sapnwrfc.dll
 0003:00000000       _Init_global_epoch         0000000180022000     LIBCMT:thread_safe_statics.obj
 0003:00000004       __scrt_native_dllmain_reason 0000000180022004     LIBCMT:utility.obj
 0003:00000008       __security_cookie          0000000180022008     LIBCMT:gs_cookie.obj
 0003:00000010       __security_cookie_complement 0000000180022010     LIBCMT:gs_cookie.obj
 0003:00000018       __isa_available            0000000180022018     LIBCMT:_cpu_disp_.obj
 0003:0000001c       __isa_enabled              000000018002201c     LIBCMT:_cpu_disp_.obj
 0003:00000020       __memcpy_nt_iters          0000000180022020     LIBCMT:_cpu_disp_.obj
 0003:00000090       __abort_behavior           0000000180022090     libucrt:abort.obj
 0003:000000a0       _iob                       00000001800220a0     libucrt:_file.obj
 0003:000001b0       __acrt_initial_locale_data 00000001800221b0     libucrt:nlsdata.obj
 0003:00000308       __acrt_initial_locale_pointers 0000000180022308     libucrt:nlsdata.obj
 0003:00000318       __acrt_wide_c_locale_string 0000000180022318     libucrt:nlsdata.obj
 0003:00000320       __acrt_initial_multibyte_data 0000000180022320     libucrt:mbctype.obj
 0003:00000548       __acrt_current_multibyte_data 0000000180022548     libucrt:mbctype.obj
 0003:00000650       _mbctype                   0000000180022650     libucrt:mbctype.obj
 0003:00000760       _mbcasemap                 0000000180022760     libucrt:mbctype.obj
 0003:00000860       __globallocalestatus       0000000180022860     libucrt:glstatus.obj
 0003:00000870       __acrt_lconv_c             0000000180022870     libucrt:localeconv.obj
 0003:00000908       __acrt_lconv_static_decimal 0000000180022908     libucrt:localeconv.obj
 0003:0000090c       __acrt_lconv_static_W_decimal 000000018002290c     libucrt:localeconv.obj
 0003:00000928       __dcrt_lowio_console_output_handle 0000000180022928     libucrt:initcon.obj
 0003:00000930       _fltused                   0000000180022930     LIBCMT:fltused.obj
 0003:00000980       __pfnDliNotifyHook2        0000000180022980     win_delay_load_hook.obj
 0003:00000988       ??_R0?AVbad_alloc@std@@@8  0000000180022988     libcpmt:xthrow.obj
 0003:000009b0       ??_R0?AVexception@std@@@8  00000001800229b0     libcpmt:xthrow.obj
 0003:000009d8       ??_R0?AVlogic_error@std@@@8 00000001800229d8     libcpmt:xthrow.obj
 0003:00000a00       ??_R0?AVlength_error@std@@@8 0000000180022a00     libcpmt:xthrow.obj
 0003:00000a28       ??_R0?AVout_of_range@std@@@8 0000000180022a28     libcpmt:xthrow.obj
 0003:00000a50       ??_R0?AVtype_info@@@8      0000000180022a50     LIBCMT:std_type_info_static.obj
 0003:00000a70       ??_R0?AVbad_array_new_length@std@@@8 0000000180022a70     LIBCMT:throw_bad_alloc.obj
 0003:00000aa0       __imp_node_module_register 0000000180022aa0     node:node.exe
 0003:00000aa8       __imp_?New@Integer@v8@@SA?AV?$Local@VInteger@v8@@@2@PEAVIsolate@2@H@Z 0000000180022aa8     node:node.exe
 0003:00000ab0       __imp_?GetCurrent@Isolate@v8@@SAPEAV12@XZ 0000000180022ab0     node:node.exe
 0003:00000ab8       __imp_??1HandleScope@v8@@QEAA@XZ 0000000180022ab8     node:node.exe
 0003:00000ac0       __imp_?Error@Exception@v8@@SA?AV?$Local@VValue@v8@@@2@V?$Local@VString@v8@@@2@@Z 0000000180022ac0     node:node.exe
 0003:00000ac8       __imp_?Escape@EscapableHandleScope@v8@@AEAAPEAPEAVObject@internal@2@PEAPEAV342@@Z 0000000180022ac8     node:node.exe
 0003:00000ad0       __imp_??0EscapableHandleScope@v8@@QEAA@PEAVIsolate@1@@Z 0000000180022ad0     node:node.exe
 0003:00000ad8       __imp_?NewFromUtf8@String@v8@@SA?AV?$Local@VString@v8@@@2@PEAVIsolate@2@PEBDW4NewStringType@12@H@Z 0000000180022ad8     node:node.exe
 0003:00000ae0       __imp_?Set@Object@v8@@QEAA_NV?$Local@VValue@v8@@@2@0@Z 0000000180022ae0     node:node.exe
 0003:00000ae8       __imp_?ToObject@Value@v8@@QEBA?AV?$Local@VObject@v8@@@2@XZ 0000000180022ae8     node:node.exe
 0003:00000af0       __imp_?ToString@Value@v8@@QEBA?AV?$Local@VString@v8@@@2@XZ 0000000180022af0     node:node.exe
 0003:00000af8       __imp_??0HandleScope@v8@@QEAA@PEAVIsolate@1@@Z 0000000180022af8     node:node.exe
 0003:00000b00       __imp_?New@Array@v8@@SA?AV?$Local@VArray@v8@@@2@PEAVIsolate@2@H@Z 0000000180022b00     node:node.exe
 0003:00000b08       __imp_?CloneElementAt@Array@v8@@QEAA?AV?$Local@VObject@v8@@@2@I@Z 0000000180022b08     node:node.exe
 0003:00000b10       __imp_?Length@Array@v8@@QEBAIXZ 0000000180022b10     node:node.exe
 0003:00000b18       __imp_??1Utf8Value@String@v8@@QEAA@XZ 0000000180022b18     node:node.exe
 0003:00000b20       __imp_??0Utf8Value@String@v8@@QEAA@V?$Local@VValue@v8@@@2@@Z 0000000180022b20     node:node.exe
 0003:00000b28       __imp_?Value@Int32@v8@@QEBAHXZ 0000000180022b28     node:node.exe
 0003:00000b30       __imp_?New@Number@v8@@SA?AV?$Local@VNumber@v8@@@2@PEAVIsolate@2@N@Z 0000000180022b30     node:node.exe
 0003:00000b38       __imp_?Value@Number@v8@@QEBANXZ 0000000180022b38     node:node.exe
 0003:00000b40       __imp_?New@Object@v8@@SA?AV?$Local@VObject@v8@@@2@PEAVIsolate@2@@Z 0000000180022b40     node:node.exe
 0003:00000b48       __imp_?GetPropertyNames@Object@v8@@QEAA?AV?$Local@VArray@v8@@@2@XZ 0000000180022b48     node:node.exe
 0003:00000b50       __imp_?Get@Object@v8@@QEAA?AV?$Local@VValue@v8@@@2@V32@@Z 0000000180022b50     node:node.exe
 0003:00000b58       __imp_?Get@Object@v8@@QEAA?AV?$Local@VValue@v8@@@2@I@Z 0000000180022b58     node:node.exe
 0003:00000b60       __imp_?ToInt32@Value@v8@@QEBA?AV?$Local@VInt32@v8@@@2@XZ 0000000180022b60     node:node.exe
 0003:00000b68       __imp_?ToNumber@Value@v8@@QEBA?AV?$Local@VNumber@v8@@@2@XZ 0000000180022b68     node:node.exe
 0003:00000b70       __imp_uv_mutex_unlock      0000000180022b70     node:node.exe
 0003:00000b78       __imp_uv_queue_work        0000000180022b78     node:node.exe
 0003:00000b80       __imp_?Global@Context@v8@@QEAA?AV?$Local@VObject@v8@@@2@XZ 0000000180022b80     node:node.exe
 0003:00000b88       __imp_?New@Signature@v8@@SA?AV?$Local@VSignature@v8@@@2@PEAVIsolate@2@V?$Local@VFunctionTemplate@v8@@@2@@Z 0000000180022b88     node:node.exe
 0003:00000b90       __imp_?ThrowException@Isolate@v8@@QEAA?AV?$Local@VValue@v8@@@2@V32@@Z 0000000180022b90     node:node.exe
 0003:00000b98       __imp_?GetCurrentContext@Isolate@v8@@QEAA?AV?$Local@VContext@v8@@@2@XZ 0000000180022b98     node:node.exe
 0003:00000ba0       __imp_?CreateHandle@HandleScope@v8@@KAPEAPEAVObject@internal@2@PEAVIsolate@42@PEAV342@@Z 0000000180022ba0     node:node.exe
 0003:00000ba8       __imp_?Set@Template@v8@@QEAAXV?$Local@VName@v8@@@2@V?$Local@VData@v8@@@2@W4PropertyAttribute@2@@Z 0000000180022ba8     node:node.exe
 0003:00000bb0       __imp_?TypeError@Exception@v8@@SA?AV?$Local@VValue@v8@@@2@V?$Local@VString@v8@@@2@@Z 0000000180022bb0     node:node.exe
 0003:00000bb8       __imp_?SetClassName@FunctionTemplate@v8@@QEAAXV?$Local@VString@v8@@@2@@Z 0000000180022bb8     node:node.exe
 0003:00000bc0       __imp_?PrototypeTemplate@FunctionTemplate@v8@@QEAA?AV?$Local@VObjectTemplate@v8@@@2@XZ 0000000180022bc0     node:node.exe
 0003:00000bc8       __imp_?InstanceTemplate@FunctionTemplate@v8@@QEAA?AV?$Local@VObjectTemplate@v8@@@2@XZ 0000000180022bc8     node:node.exe
 0003:00000bd0       __imp_?GetFunction@FunctionTemplate@v8@@QEAA?AV?$Local@VFunction@v8@@@2@XZ 0000000180022bd0     node:node.exe
 0003:00000bd8       __imp_?New@FunctionTemplate@v8@@SA?AV?$Local@VFunctionTemplate@v8@@@2@PEAVIsolate@2@P6AXAEBV?$FunctionCallbackInfo@VValue@v8@@@2@@ZV?$Local@VValue@v8@@@2@V?$Local@VSignature@v8@@@2@H@Z 0000000180022bd8     node:node.exe
 0003:00000be0       __imp_?ClearWeak@V8@v8@@CAPEAXPEAPEAVObject@internal@2@@Z 0000000180022be0     node:node.exe
 0003:00000be8       __imp_?MakeWeak@V8@v8@@CAXPEAPEAVObject@internal@2@PEAXP6AXAEBV?$WeakCallbackData@VValue@v8@@X@2@@Z@Z 0000000180022be8     node:node.exe
 0003:00000bf0       __imp_?DisposeGlobal@V8@v8@@CAXPEAPEAVObject@internal@2@@Z 0000000180022bf0     node:node.exe
 0003:00000bf8       __imp_?GlobalizeReference@V8@v8@@CAPEAPEAVObject@internal@2@PEAVIsolate@42@PEAPEAV342@@Z 0000000180022bf8     node:node.exe
 0003:00000c00       __imp_?BooleanValue@Value@v8@@QEBA_NXZ 0000000180022c00     node:node.exe
 0003:00000c08       __imp_?IsBoolean@Value@v8@@QEBA_NXZ 0000000180022c08     node:node.exe
 0003:00000c10       __imp_?IsObject@Value@v8@@QEBA_NXZ 0000000180022c10     node:node.exe
 0003:00000c18       __imp_?IsFunction@Value@v8@@QEBA_NXZ 0000000180022c18     node:node.exe
 0003:00000c20       __imp_?HasCaught@TryCatch@v8@@QEBA_NXZ 0000000180022c20     node:node.exe
 0003:00000c28       __imp_??1TryCatch@v8@@QEAA@XZ 0000000180022c28     node:node.exe
 0003:00000c30       __imp_??0TryCatch@v8@@QEAA@XZ 0000000180022c30     node:node.exe
 0003:00000c38       __imp_?SlowGetAlignedPointerFromInternalField@Object@v8@@AEAAPEAXH@Z 0000000180022c38     node:node.exe
 0003:00000c40       __imp_?SetAlignedPointerInInternalField@Object@v8@@QEAAXHPEAX@Z 0000000180022c40     node:node.exe
 0003:00000c48       __imp_?SetName@Function@v8@@QEAAXV?$Local@VString@v8@@@2@@Z 0000000180022c48     node:node.exe
 0003:00000c50       __imp_?Call@Function@v8@@QEAA?AV?$Local@VValue@v8@@@2@V32@HQEAV32@@Z 0000000180022c50     node:node.exe
 0003:00000c58       __imp_?SetInternalFieldCount@ObjectTemplate@v8@@QEAAXH@Z 0000000180022c58     node:node.exe
 0003:00000c60       __imp_uv_mutex_lock        0000000180022c60     node:node.exe
 0003:00000c68       __imp_?FatalException@node@@YAXPEAVIsolate@v8@@AEBVTryCatch@3@@Z 0000000180022c68     node:node.exe
 0003:00000c70       __imp_uv_mutex_destroy     0000000180022c70     node:node.exe
 0003:00000c78       __imp_uv_mutex_init        0000000180022c78     node:node.exe
 0003:00000c80       __imp_uv_default_loop      0000000180022c80     node:node.exe
 0003:00000c88       \177node_NULL_THUNK_DATA_DLA 0000000180022c88     node:node.exe
 0003:00000c90       __hmod__node_exe           0000000180022c90     node:node.exe
 0003:00000ce0       __scrt_current_native_startup_state 0000000180022ce0     LIBCMT:utility.obj
 0003:00000ce8       __scrt_native_startup_lock 0000000180022ce8     LIBCMT:utility.obj
 0003:000012a0       __scrt_debugger_hook_flag  00000001800232a0     LIBCMT:utility_desktop.obj
 0003:000012a4       _tls_index                 00000001800232a4     LIBCMT:tlssup.obj
 0003:000012a8       __favor                    00000001800232a8     LIBCMT:_cpu_disp_.obj
 0003:000012b0       ?__type_info_root_node@@3U__type_info_node@@A 00000001800232b0     LIBCMT:tncleanup.obj
 0003:000012c0       ?_OptionsStorage@?1??__local_stdio_scanf_options@@9@4_KA 00000001800232c0     LIBCMT:default_local_stdio_options.obj
 0003:000013e8       __pPurecall                00000001800233e8     libvcruntime:purevirt_data.obj
 0003:000013f0       ?pArgList@UnDecorator@@0PEAVReplicator@@EA 00000001800233f0     libvcruntime:undname.obj
 0003:000013f8       ?pZNameList@UnDecorator@@0PEAVReplicator@@EA 00000001800233f8     libvcruntime:undname.obj
 0003:00001400       ?pTemplateArgList@UnDecorator@@0PEAVReplicator@@EA 0000000180023400     libvcruntime:undname.obj
 0003:00001408       ?gName@UnDecorator@@0PEBDEB 0000000180023408     libvcruntime:undname.obj
 0003:00001410       ?name@UnDecorator@@0PEBDEB 0000000180023410     libvcruntime:undname.obj
 0003:00001418       ?outputString@UnDecorator@@0PEADEA 0000000180023418     libvcruntime:undname.obj
 0003:00001420       ?maxStringLength@UnDecorator@@0HA 0000000180023420     libvcruntime:undname.obj
 0003:00001424       ?disableFlags@UnDecorator@@0KA 0000000180023424     libvcruntime:undname.obj
 0003:00001428       ?fExplicitTemplateParams@UnDecorator@@0_NA 0000000180023428     libvcruntime:undname.obj
 0003:00001429       ?fGetTemplateArgumentList@UnDecorator@@0_NA 0000000180023429     libvcruntime:undname.obj
 0003:00001430       ?m_pGetParameter@UnDecorator@@0P6APEADJ@ZEA 0000000180023430     libvcruntime:undname.obj
 0003:00001488       _environ_table             0000000180023488     libucrt:environment_initialization.obj
 0003:00001490       _wenviron_table            0000000180023490     libucrt:environment_initialization.obj
 0003:00001498       __dcrt_initial_wide_environment 0000000180023498     libucrt:environment_initialization.obj
 0003:000014a0       __dcrt_initial_narrow_environment 00000001800234a0     libucrt:environment_initialization.obj
 0003:000014a8       __acrt_atexit_table        00000001800234a8     libucrt:onexit.obj
 0003:000014c0       __acrt_at_quick_exit_table 00000001800234c0     libucrt:onexit.obj
 0003:000014d8       _nstream                   00000001800234d8     libucrt:_file.obj
 0003:000014e0       __piob                     00000001800234e0     libucrt:_file.obj
 0003:000014f0       __acrt_stdout_buffer       00000001800234f0     libucrt:_sftbuf.obj
 0003:000014f8       __acrt_stderr_buffer       00000001800234f8     libucrt:_sftbuf.obj
 0003:00001500       __acrt_locale_changed_data 0000000180023500     libucrt:wsetlocale.obj
 0003:00001508       __acrt_current_locale_data 0000000180023508     libucrt:nlsdata.obj
 0003:00001510       __pioinfo                  0000000180023510     libucrt:ioinit.obj
 0003:00001910       _nhandle                   0000000180023910     libucrt:ioinit.obj
 0003:00001cd4       __mbcodepage               0000000180023cd4     libucrt:mbctype.obj
 0003:00001cd8       __ismbcodepage             0000000180023cd8     libucrt:mbctype.obj
 0003:00001ce0       __mbulinfo                 0000000180023ce0     libucrt:mbctype.obj
 0003:00001cf0       __mblocalename             0000000180023cf0     libucrt:mbctype.obj
 0003:00001d00       __acrt_heap                0000000180023d00     libucrt:heap_handle.obj
 0003:00001d08       __argv                     0000000180023d08     libucrt:argv_data.obj
 0003:00001d10       __wargv                    0000000180023d10     libucrt:argv_data.obj
 0003:00001d18       _acmdln                    0000000180023d18     libucrt:argv_data.obj
 0003:00001d20       _wcmdln                    0000000180023d20     libucrt:argv_data.obj
 0003:00001d54       __acrt_lconv_static_null   0000000180023d54     libucrt:localeconv.obj
 0003:00001d58       __acrt_lconv_static_W_null 0000000180023d58     libucrt:localeconv.obj
 0003:00001d60       __fma3_is_available        0000000180023d60     libucrt:fma3_available.obj
 0003:00001d64       __use_fma3_lib             0000000180023d64     libucrt:fma3_available.obj
 0003:00001d68       ?DloadKernel32@@3PEAUHINSTANCE__@@EA 0000000180023d68     DelayImp:delayhlp.obj
 0003:00001d70       ?DloadAcquireSRWLockExclusive@@3P6AXPEA_K@ZEA 0000000180023d70     DelayImp:delayhlp.obj
 0003:00001d78       ?DloadReleaseSRWLockExclusive@@3P6AXPEA_K@ZEA 0000000180023d78     DelayImp:delayhlp.obj
 0003:00001d80       ?DloadSrwLock@@3_KA        0000000180023d80     DelayImp:delayhlp.obj
 0003:00001d88       ?DloadSectionLockCount@@3KA 0000000180023d88     DelayImp:delayhlp.obj
 0003:00001d8c       ?DloadSectionOldProtection@@3KA 0000000180023d8c     DelayImp:delayhlp.obj
 0003:00001d90       ?DloadSectionCommitPermanent@@3KA 0000000180023d90     DelayImp:delayhlp.obj
 0003:00001d98       __pfnDliFailureHook2       0000000180023d98     DelayImp:delayhk1.obj
 0003:00001da0       ?_OptionsStorage@?1??__local_stdio_printf_options@@9@4_KA 0000000180023da0     error.obj
 0003:00001dd0       ?constructor@Client@@0V?$Persistent@VFunction@v8@@V?$NonCopyablePersistentTraits@VFunction@v8@@@2@@v8@@A 0000000180023dd0     Client.obj
 0003:00001dd8       __dyn_tls_init_callback    0000000180023dd8     <common>
 0003:00001de0       __scrt_ucrt_dll_is_in_use  0000000180023de0     <common>
 0003:00001de8       _pDestructExceptionObject  0000000180023de8     <common>
 0006:00000000       _tls_start                 0000000180027000     LIBCMT:tlssup.obj
 0006:00000004       _Init_thread_epoch         0000000180027004     LIBCMT:thread_safe_statics.obj
 0006:00000008       _tls_end                   0000000180027008     LIBCMT:tlssup.obj

 entry point at        0001:00006208

 Static symbols

 0000:fffd6000       .debug$S                   0000000180000000     kernel32:KERNEL32.dll
 0000:fffd6000       .debug$S                   0000000180000000     kernel32:KERNEL32.dll
 0000:fffd6000       .debug$S                   0000000180000000     kernel32:KERNEL32.dll
 0000:fffd6000       .debug$S                   0000000180000000     kernel32:KERNEL32.dll
 0000:fffd6000       .debug$S                   0000000180000000     kernel32:KERNEL32.dll
 0000:fffd6000       .debug$S                   0000000180000000     kernel32:KERNEL32.dll
 0000:fffd6000       .debug$S                   0000000180000000     kernel32:KERNEL32.dll
 0000:fffd6000       .debug$S                   0000000180000000     kernel32:KERNEL32.dll
 0000:fffd6000       .debug$S                   0000000180000000     kernel32:KERNEL32.dll
 0000:fffd6000       .debug$S                   0000000180000000     kernel32:KERNEL32.dll
 0000:fffd6000       .debug$S                   0000000180000000     kernel32:KERNEL32.dll
 0000:fffd6000       .debug$S                   0000000180000000     kernel32:KERNEL32.dll
 0000:fffd6000       .debug$S                   0000000180000000     kernel32:KERNEL32.dll
 0000:fffd6000       .debug$S                   0000000180000000     node:node.exe
 0000:fffd6000       .debug$S                   0000000180000000     node:node.exe
 0000:fffd6000       .debug$S                   0000000180000000     kernel32:KERNEL32.dll
 0000:fffd6000       .debug$S                   0000000180000000     kernel32:KERNEL32.dll
 0000:fffd6000       .debug$S                   0000000180000000     node:node.exe
 0000:fffd6000       .debug$S                   0000000180000000     node:node.exe
 0000:fffd6000       .debug$S                   0000000180000000     node:node.exe
 0000:fffd6000       .debug$S                   0000000180000000     node:node.exe
 0000:fffd6000       .debug$S                   0000000180000000     node:node.exe
 0000:fffd6000       .debug$S                   0000000180000000     node:node.exe
 0000:fffd6000       .debug$S                   0000000180000000     node:node.exe
 0000:fffd6000       .debug$S                   0000000180000000     node:node.exe
 0000:fffd6000       .debug$S                   0000000180000000     node:node.exe
 0000:fffd6000       .debug$S                   0000000180000000     node:node.exe
 0000:fffd6000       .debug$S                   0000000180000000     node:node.exe
 0000:fffd6000       .debug$S                   0000000180000000     node:node.exe
 0000:fffd6000       .debug$S                   0000000180000000     node:node.exe
 0000:fffd6000       .debug$S                   0000000180000000     node:node.exe
 0000:fffd6000       .debug$S                   0000000180000000     node:node.exe
 0000:fffd6000       .debug$S                   0000000180000000     node:node.exe
 0000:fffd6000       .debug$S                   0000000180000000     node:node.exe
 0000:fffd6000       .debug$S                   0000000180000000     node:node.exe
 0000:fffd6000       .debug$S                   0000000180000000     node:node.exe
 0000:fffd6000       .debug$S                   0000000180000000     node:node.exe
 0000:fffd6000       .debug$S                   0000000180000000     node:node.exe
 0000:fffd6000       .debug$S                   0000000180000000     node:node.exe
 0000:fffd6000       .debug$S                   0000000180000000     node:node.exe
 0000:fffd6000       .debug$S                   0000000180000000     node:node.exe
 0000:fffd6000       .debug$S                   0000000180000000     node:node.exe
 0000:fffd6000       .debug$S                   0000000180000000     node:node.exe
 0000:fffd6000       .debug$S                   0000000180000000     node:node.exe
 0000:fffd6000       .debug$S                   0000000180000000     node:node.exe
 0000:fffd6000       .debug$S                   0000000180000000     node:node.exe
 0000:fffd6000       .debug$S                   0000000180000000     node:node.exe
 0000:fffd6000       .debug$S                   0000000180000000     node:node.exe
 0000:fffd6000       .debug$S                   0000000180000000     node:node.exe
 0000:fffd6000       .debug$S                   0000000180000000     node:node.exe
 0000:fffd6000       .debug$S                   0000000180000000     node:node.exe
 0000:fffd6000       .debug$S                   0000000180000000     node:node.exe
 0000:fffd6000       .debug$S                   0000000180000000     node:node.exe
 0000:fffd6000       .debug$S                   0000000180000000     node:node.exe
 0000:fffd6000       .debug$S                   0000000180000000     node:node.exe
 0000:fffd6000       .debug$S                   0000000180000000     node:node.exe
 0000:fffd6000       .debug$S                   0000000180000000     node:node.exe
 0000:fffd6000       .debug$S                   0000000180000000     node:node.exe
 0000:fffd6000       .debug$S                   0000000180000000     node:node.exe
 0000:fffd6000       .debug$S                   0000000180000000     node:node.exe
 0000:fffd6000       .debug$S                   0000000180000000     node:node.exe
 0000:fffd6000       .debug$S                   0000000180000000     node:node.exe
 0000:fffd6000       .debug$S                   0000000180000000     node:node.exe
 0000:fffd6000       .debug$S                   0000000180000000     node:node.exe
 0000:fffd6000       .debug$S                   0000000180000000     node:node.exe
 0000:fffd6000       .debug$S                   0000000180000000     node:node.exe
 0000:fffd6000       .debug$S                   0000000180000000     kernel32:KERNEL32.dll
 0000:fffd6000       .debug$S                   0000000180000000     node:node.exe
 0000:fffd6000       .debug$S                   0000000180000000     node:node.exe
 0000:fffd6000       .debug$S                   0000000180000000     node:node.exe
 0000:fffd6000       .debug$S                   0000000180000000     node:node.exe
 0000:fffd6000       .debug$S                   0000000180000000     node:node.exe
 0000:fffd6000       .debug$S                   0000000180000000     node:node.exe
 0000:fffd6000       .debug$S                   0000000180000000     node:node.exe
 0000:fffd6000       .debug$S                   0000000180000000     node:node.exe
 0000:fffd6000       .debug$S                   0000000180000000     node:node.exe
 0000:fffd6000       .debug$S                   0000000180000000     node:node.exe
 0000:fffd6000       .debug$S                   0000000180000000     node:node.exe
 0000:fffd6000       .debug$S                   0000000180000000     node:node.exe
 0000:fffd6000       .debug$S                   0000000180000000     node:node.exe
 0000:fffd6000       .debug$S                   0000000180000000     node:node.exe
 0000:fffd6000       .debug$S                   0000000180000000     node:node.exe
 0000:fffd6000       .debug$S                   0000000180000000     node:node.exe
 0000:fffd6000       .debug$S                   0000000180000000     node:node.exe
 0000:fffd6000       .debug$S                   0000000180000000     node:node.exe
 0000:fffd6000       .debug$S                   0000000180000000     node:node.exe
 0000:fffd6000       .debug$S                   0000000180000000     node:node.exe
 0000:fffd6000       .debug$S                   0000000180000000     node:node.exe
 0000:fffd6000       .debug$S                   0000000180000000     advapi32:ADVAPI32.dll
 0000:fffd6000       .debug$S                   0000000180000000     kernel32:KERNEL32.dll
 0000:fffd6000       .debug$S                   0000000180000000     kernel32:KERNEL32.dll
 0000:fffd6000       .debug$S                   0000000180000000     kernel32:KERNEL32.dll
 0000:fffd6000       .debug$S                   0000000180000000     kernel32:KERNEL32.dll
 0000:fffd6000       .debug$S                   0000000180000000     kernel32:KERNEL32.dll
 0000:fffd6000       .debug$S                   0000000180000000     kernel32:KERNEL32.dll
 0000:fffd6000       .debug$S                   0000000180000000     kernel32:KERNEL32.dll
 0000:fffd6000       .debug$S                   0000000180000000     kernel32:KERNEL32.dll
 0000:fffd6000       .debug$S                   0000000180000000     kernel32:KERNEL32.dll
 0000:fffd6000       .debug$S                   0000000180000000     kernel32:KERNEL32.dll
 0000:fffd6000       .debug$S                   0000000180000000     kernel32:KERNEL32.dll
 0000:fffd6000       .debug$S                   0000000180000000     kernel32:KERNEL32.dll
 0000:fffd6000       .debug$S                   0000000180000000     kernel32:KERNEL32.dll
 0000:fffd6000       .debug$S                   0000000180000000     kernel32:KERNEL32.dll
 0000:fffd6000       .debug$S                   0000000180000000     kernel32:KERNEL32.dll
 0000:fffd6000       .debug$S                   0000000180000000     kernel32:KERNEL32.dll
 0000:fffd6000       .debug$S                   0000000180000000     kernel32:KERNEL32.dll
 0000:fffd6000       .debug$S                   0000000180000000     kernel32:KERNEL32.dll
 0000:fffd6000       .debug$S                   0000000180000000     kernel32:KERNEL32.dll
 0000:fffd6000       .debug$S                   0000000180000000     kernel32:KERNEL32.dll
 0000:fffd6000       .debug$S                   0000000180000000     kernel32:KERNEL32.dll
 0000:fffd6000       .debug$S                   0000000180000000     kernel32:KERNEL32.dll
 0000:fffd6000       .debug$S                   0000000180000000     kernel32:KERNEL32.dll
 0000:fffd6000       .debug$S                   0000000180000000     kernel32:KERNEL32.dll
 0000:fffd6000       .debug$S                   0000000180000000     kernel32:KERNEL32.dll
 0000:fffd6000       .debug$S                   0000000180000000     kernel32:KERNEL32.dll
 0000:fffd6000       .debug$S                   0000000180000000     kernel32:KERNEL32.dll
 0000:fffd6000       .debug$S                   0000000180000000     kernel32:KERNEL32.dll
 0000:fffd6000       .debug$S                   0000000180000000     kernel32:KERNEL32.dll
 0000:fffd6000       .debug$S                   0000000180000000     kernel32:KERNEL32.dll
 0000:fffd6000       .debug$S                   0000000180000000     kernel32:KERNEL32.dll
 0000:fffd6000       .debug$S                   0000000180000000     kernel32:KERNEL32.dll
 0000:fffd6000       .debug$S                   0000000180000000     kernel32:KERNEL32.dll
 0000:fffd6000       .debug$S                   0000000180000000     kernel32:KERNEL32.dll
 0000:fffd6000       .debug$S                   0000000180000000     kernel32:KERNEL32.dll
 0000:fffd6000       .debug$S                   0000000180000000     kernel32:KERNEL32.dll
 0000:fffd6000       .debug$S                   0000000180000000     kernel32:KERNEL32.dll
 0000:fffd6000       .debug$S                   0000000180000000     kernel32:KERNEL32.dll
 0000:fffd6000       .debug$S                   0000000180000000     kernel32:KERNEL32.dll
 0000:fffd6000       .debug$S                   0000000180000000     kernel32:KERNEL32.dll
 0000:fffd6000       .debug$S                   0000000180000000     kernel32:KERNEL32.dll
 0000:fffd6000       .debug$S                   0000000180000000     kernel32:KERNEL32.dll
 0000:fffd6000       .debug$S                   0000000180000000     kernel32:KERNEL32.dll
 0000:fffd6000       .debug$S                   0000000180000000     kernel32:KERNEL32.dll
 0000:fffd6000       .debug$S                   0000000180000000     kernel32:KERNEL32.dll
 0000:fffd6000       .debug$S                   0000000180000000     kernel32:KERNEL32.dll
 0000:fffd6000       .debug$S                   0000000180000000     kernel32:KERNEL32.dll
 0000:fffd6000       .debug$S                   0000000180000000     rfc-v4.2.4.exp
 0000:fffd6000       .debug$S                   0000000180000000     kernel32:KERNEL32.dll
 0000:fffd6000       .debug$S                   0000000180000000     kernel32:KERNEL32.dll
 0000:fffd6000       .debug$S                   0000000180000000     kernel32:KERNEL32.dll
 0000:fffd6000       .debug$S                   0000000180000000     kernel32:KERNEL32.dll
 0000:fffd6000       .debug$S                   0000000180000000     kernel32:KERNEL32.dll
 0000:fffd6000       .debug$S                   0000000180000000     sapnwrfc:sapnwrfc.dll
 0000:fffd6000       .debug$S                   0000000180000000     sapnwrfc:sapnwrfc.dll
 0000:fffd6000       .debug$S                   0000000180000000     sapnwrfc:sapnwrfc.dll
 0000:fffd6000       .debug$S                   0000000180000000     sapnwrfc:sapnwrfc.dll
 0000:fffd6000       .debug$S                   0000000180000000     sapnwrfc:sapnwrfc.dll
 0000:fffd6000       .debug$S                   0000000180000000     sapnwrfc:sapnwrfc.dll
 0000:fffd6000       .debug$S                   0000000180000000     sapnwrfc:sapnwrfc.dll
 0000:fffd6000       .debug$S                   0000000180000000     sapnwrfc:sapnwrfc.dll
 0000:fffd6000       .debug$S                   0000000180000000     sapnwrfc:sapnwrfc.dll
 0000:fffd6000       .debug$S                   0000000180000000     sapnwrfc:sapnwrfc.dll
 0000:fffd6000       .debug$S                   0000000180000000     sapnwrfc:sapnwrfc.dll
 0000:fffd6000       .debug$S                   0000000180000000     sapnwrfc:sapnwrfc.dll
 0000:fffd6000       .debug$S                   0000000180000000     sapnwrfc:sapnwrfc.dll
 0000:fffd6000       .debug$S                   0000000180000000     sapnwrfc:sapnwrfc.dll
 0000:fffd6000       .debug$S                   0000000180000000     sapnwrfc:sapnwrfc.dll
 0000:fffd6000       .debug$S                   0000000180000000     sapnwrfc:sapnwrfc.dll
 0000:fffd6000       .debug$S                   0000000180000000     sapnwrfc:sapnwrfc.dll
 0000:fffd6000       .debug$S                   0000000180000000     sapnwrfc:sapnwrfc.dll
 0000:fffd6000       .debug$S                   0000000180000000     sapnwrfc:sapnwrfc.dll
 0000:fffd6000       .debug$S                   0000000180000000     sapnwrfc:sapnwrfc.dll
 0000:fffd6000       .debug$S                   0000000180000000     sapnwrfc:sapnwrfc.dll
 0000:fffd6000       .debug$S                   0000000180000000     sapnwrfc:sapnwrfc.dll
 0000:fffd6000       .debug$S                   0000000180000000     sapnwrfc:sapnwrfc.dll
 0000:fffd6000       .debug$S                   0000000180000000     sapnwrfc:sapnwrfc.dll
 0000:fffd6000       .debug$S                   0000000180000000     sapnwrfc:sapnwrfc.dll
 0000:fffd6000       .debug$S                   0000000180000000     sapnwrfc:sapnwrfc.dll
 0000:fffd6000       .debug$S                   0000000180000000     sapnwrfc:sapnwrfc.dll
 0000:fffd6000       .debug$S                   0000000180000000     sapnwrfc:sapnwrfc.dll
 0000:fffd6000       .debug$S                   0000000180000000     sapnwrfc:sapnwrfc.dll
 0000:fffd6000       .debug$S                   0000000180000000     sapnwrfc:sapnwrfc.dll
 0000:fffd6000       .debug$S                   0000000180000000     sapnwrfc:sapnwrfc.dll
 0000:fffd6000       .debug$S                   0000000180000000     sapnwrfc:sapnwrfc.dll
 0000:fffd6000       .debug$S                   0000000180000000     sapnwrfc:sapnwrfc.dll
 0000:fffd6000       .debug$S                   0000000180000000     sapnwrfc:sapnwrfc.dll
 0000:fffd6000       .debug$S                   0000000180000000     sapnwrfc:sapnwrfc.dll
 0000:fffd6000       .debug$S                   0000000180000000     sapnwrfc:sapnwrfc.dll
 0000:fffd6000       .debug$S                   0000000180000000     sapnwrfc:sapnwrfc.dll
 0000:fffd6000       .debug$S                   0000000180000000     sapnwrfc:sapnwrfc.dll
 0000:fffd6000       .debug$S                   0000000180000000     sapnwrfc:sapnwrfc.dll
 0000:fffd6000       .debug$S                   0000000180000000     sapnwrfc:sapnwrfc.dll
 0000:fffd6000       .debug$S                   0000000180000000     sapnwrfc:sapnwrfc.dll
 0000:fffd6000       .debug$S                   0000000180000000     sapnwrfc:sapnwrfc.dll
 0000:fffd6000       .debug$S                   0000000180000000     sapnwrfc:sapnwrfc.dll
 0000:fffd6000       .debug$S                   0000000180000000     sapnwrfc:sapnwrfc.dll
 0000:fffd6000       .debug$S                   0000000180000000     sapnwrfc:sapnwrfc.dll
 0000:fffd6000       .debug$S                   0000000180000000     sapnwrfc:sapnwrfc.dll
 0000:fffd6000       .debug$S                   0000000180000000     kernel32:KERNEL32.dll
 0000:fffd6000       .debug$S                   0000000180000000     kernel32:KERNEL32.dll
 0000:fffd6000       .debug$S                   0000000180000000     kernel32:KERNEL32.dll
 0000:fffd6000       .debug$S                   0000000180000000     kernel32:KERNEL32.dll
 0000:fffd6000       .debug$S                   0000000180000000     kernel32:KERNEL32.dll
 0000:fffd6000       .debug$S                   0000000180000000     kernel32:KERNEL32.dll
 0000:fffd6000       .debug$S                   0000000180000000     kernel32:KERNEL32.dll
 0000:fffd6000       .debug$S                   0000000180000000     kernel32:KERNEL32.dll
 0000:fffd6000       .debug$S                   0000000180000000     kernel32:KERNEL32.dll
 0000:fffd6000       .debug$S                   0000000180000000     kernel32:KERNEL32.dll
 0000:fffd6000       .debug$S                   0000000180000000     kernel32:KERNEL32.dll
 0000:fffd6000       .debug$S                   0000000180000000     kernel32:KERNEL32.dll
 0000:fffd6000       .debug$S                   0000000180000000     kernel32:KERNEL32.dll
 0000:fffd6000       .debug$S                   0000000180000000     kernel32:KERNEL32.dll
 0000:fffd6000       .debug$S                   0000000180000000     kernel32:KERNEL32.dll
 0000:fffd6000       .debug$S                   0000000180000000     kernel32:KERNEL32.dll
 0000:fffd6000       .debug$S                   0000000180000000     kernel32:KERNEL32.dll
 0000:fffd6000       .debug$S                   0000000180000000     kernel32:KERNEL32.dll
 0000:fffd6000       .debug$S                   0000000180000000     kernel32:KERNEL32.dll
 0001:000001e0       ??__E?constructor@Client@@0V?$Persistent@VFunction@v8@@V?$NonCopyablePersistentTraits@VFunction@v8@@@2@@v8@@A@@YAXXZ 00000001800011e0 f   Client.obj
 0001:00000210       _register_rfc              0000000180001210 f   rfc.obj
 0001:00000838       $LN70                      0000000180001838     error.obj
 0001:0000127c       $LN424                     000000018000227c     rfcio.obj
 0001:00002078       $LN366                     0000000180003078     rfcio.obj
 0001:00005130       load_exe_hook              0000000180006130 f   win_delay_load_hook.obj
 0001:00005760       $$000000                   0000000180006760     LIBCMT:_amdsecgs_.obj
 0001:00005794       ?__scrt_initialize_thread_safe_statics@@YAHXZ 0000000180006794 f   LIBCMT:thread_safe_statics.obj
 0001:000058b4       ?__scrt_uninitialize_thread_safe_statics@@YAXXZ 00000001800068b4 f   LIBCMT:thread_safe_statics.obj
 0001:00005eac       ?dllmain_crt_dispatch@@YAHQEAUHINSTANCE__@@KQEAX@Z 0000000180006eac f   LIBCMT:dll_dllmain.obj
 0001:00005efc       ?dllmain_crt_process_attach@@YAHQEAUHINSTANCE__@@QEAX@Z 0000000180006efc f   LIBCMT:dll_dllmain.obj
 0001:00006028       ?dllmain_crt_process_detach@@YAH_N@Z 0000000180007028 f   LIBCMT:dll_dllmain.obj
 0001:000060ac       ?dllmain_dispatch@@YAHQEAUHINSTANCE__@@KQEAX@Z 00000001800070ac f   LIBCMT:dll_dllmain.obj
 0001:000061b4       ?dllmain_raw@@YAHQEAUHINSTANCE__@@KQEAX@Z 00000001800071b4 f   LIBCMT:dll_dllmain.obj
 0001:0000637c       capture_previous_context   000000018000737c f   LIBCMT:gs_report.obj
 0001:00006970       $$000000                   0000000180007970     libvcruntime:memcpy.obj
 0001:00006a17       MoveSmall                  0000000180007a17     libvcruntime:memcpy.obj
 0001:00006f48       ?try_get_function@@YAPEAXW4function_id@?A0x61ce2399@@QEBDQEBW4module_id@2@2@Z 0000000180007f48 f   libvcruntime:winapi_downlevel.obj
 0001:000077e4       _TlgDefineProvider_annotation__Tlg_Microsoft_CRTProviderProv 00000001800087e4 f   libvcruntime:telemetry.obj
 0001:00007a50       $$000000                   0000000180008a50     libvcruntime:memset.obj
 0001:00007b3c       MsetTab                    0000000180008b3c     libvcruntime:memset.obj
 0001:00007e50       $$000000                   0000000180008e50     libvcruntime:_jmpuwind_.obj
 0001:00009b54       ?atexit_exception_filter@@YAHK@Z 000000018000ab54 f   libucrt:exit.obj
 0001:00009b60       ?common_exit@@YAXHW4_crt_exit_cleanup_mode@@W4_crt_exit_return_mode@@@Z 000000018000ab60 f   libucrt:exit.obj
 0001:00009ccc       ?exit_or_terminate_process@@YAXI@Z 000000018000accc f   libucrt:exit.obj
 0001:00009d18       ?try_cor_exit_process@@YAXI@Z 000000018000ad18 f   libucrt:exit.obj
 0001:00009db0       ??$common_initialize_environment_nolock@D@@YAHXZ 000000018000adb0 f   libucrt:environment_initialization.obj
 0001:00009e1c       ??$create_environment@D@@YAQEAPEADQEAD@Z 000000018000ae1c f   libucrt:environment_initialization.obj
 0001:00009f18       ??$free_environment@D@@YAXQEAPEAD@Z 000000018000af18 f   libucrt:environment_initialization.obj
 0001:00009f18       ??$free_environment@_W@@YAXQEAPEA_W@Z 000000018000af18 f   libucrt:environment_initialization.obj
 0001:00009f5c       ??$uninitialize_environment_internal@D@@YAXAEAPEAPEAD@Z 000000018000af5c f   libucrt:environment_initialization.obj
 0001:00009f78       ??$uninitialize_environment_internal@_W@@YAXAEAPEAPEA_W@Z 000000018000af78 f   libucrt:environment_initialization.obj
 0001:0000a1b0       ??R<lambda_4e60a939b0d047cfe11ddc22648dfba9>@@QEBAHXZ 000000018000b1b0 f   libucrt:onexit.obj
 0001:0000a460       initialize_global_variables 000000018000b460 f   libucrt:initialization.obj
 0001:0000a474       initialize_c               000000018000b474 f   libucrt:initialization.obj
 0001:0000a498       initialize_global_state_isolation 000000018000b498 f   libucrt:initialization.obj
 0001:0000a498       initialize_environment     000000018000b498 f   libucrt:initialization.obj
 0001:0000a498       uninitialize_c             000000018000b498 f   libucrt:initialization.obj
 0001:0000a498       report_memory_leaks        000000018000b498 f   libucrt:initialization.obj
 0001:0000a498       uninitialize_global_state_isolation 000000018000b498 f   libucrt:initialization.obj
 0001:0000a49c       uninitialize_environment   000000018000b49c f   libucrt:initialization.obj
 0001:0000a4ac       initialize_pointers        000000018000b4ac f   libucrt:initialization.obj
 0001:0000a500       uninitialize_vcruntime     000000018000b500 f   libucrt:initialization.obj
 0001:0000a508       uninitialize_allocated_memory 000000018000b508 f   libucrt:initialization.obj
 0001:0000abf0       ?internal_isupper_l@@YA_NHQEAU__crt_locale_pointers@@@Z 000000018000bbf0 f   libucrt:tolower_toupper.obj
 0001:0000b624       ?construct_ptd_array@@YAXQEAU__acrt_ptd@@@Z 000000018000c624 f   libucrt:per_thread_data.obj
 0001:0000b6f4       ?destroy_fls@@YAXPEAX@Z    000000018000c6f4 f   libucrt:per_thread_data.obj
 0001:0000b714       ?destroy_ptd_array@@YAXQEAU__acrt_ptd@@@Z 000000018000c714 f   libucrt:per_thread_data.obj
 0001:0000b80c       ?replace_current_thread_locale_nolock@@YAXQEAU__acrt_ptd@@QEAU__crt_locale_data@@@Z 000000018000c80c f   libucrt:per_thread_data.obj
 0001:0000bb1c       ?fp_format_a@@YAHQEBNPEAD_KQEAD2H_NIQEAU__crt_locale_pointers@@@Z 000000018000cb1c f   libucrt:cvt.obj
 0001:0000be7c       ?fp_format_e@@YAHQEBNQEAD_K12H_NIQEAU__crt_locale_pointers@@@Z 000000018000ce7c f   libucrt:cvt.obj
 0001:0000bf4c       ?fp_format_e_internal@@YAHQEAD_KH_NIQEAU_strflt@@2QEAU__crt_locale_pointers@@@Z 000000018000cf4c f   libucrt:cvt.obj
 0001:0000c128       ?fp_format_f_internal@@YAHQEAD_KHQEAU_strflt@@_NQEAU__crt_locale_pointers@@@Z 000000018000d128 f   libucrt:cvt.obj
 0001:0000c270       ?fp_format_g@@YAHQEBNQEAD_K12H_NIQEAU__crt_locale_pointers@@@Z 000000018000d270 f   libucrt:cvt.obj
 0001:0000c3a8       ?fp_format_nan_or_infinity@@YAHW4__acrt_fp_class@@_NPEAD_K1@Z 000000018000d3a8 f   libucrt:cvt.obj
 0001:0000c958       ?initialize_inherited_file_handles_nolock@@YAXXZ 000000018000d958 f   libucrt:ioinit.obj
 0001:0000ca44       ?initialize_stdio_handles_nolock@@YAXXZ 000000018000da44 f   libucrt:ioinit.obj
 0001:0000cdb4       ?try_get_function@@YAPEAXW4function_id@?A0x63058377@@QEBDQEBW4module_id@2@2@Z 000000018000ddb4 f   libucrt:winapi_thunks.obj
 0001:0000d3d0       ??R<lambda_ad1ced32f4ac17aa236e5ef05d6b3b7c>@@QEBAXXZ 000000018000e3d0 f   libucrt:mbctype.obj
 0001:0000d5e8       ?getSystemCP@@YAHH@Z       000000018000e5e8 f   libucrt:mbctype.obj
 0001:0000d668       ?setSBCS@@YAXPEAU__crt_multibyte_data@@@Z 000000018000e668 f   libucrt:mbctype.obj
 0001:0000d6f8       ?setSBUpLow@@YAXPEAU__crt_multibyte_data@@@Z 000000018000e6f8 f   libucrt:mbctype.obj
 0001:0000d8dc       ?setmbcp_internal@@YAHH_N@Z 000000018000e8dc f   libucrt:mbctype.obj
 0001:0000e4e8       ?__acrt_LCMapStringA_stat@@YAHPEAU__crt_locale_pointers@@PEB_WKPEBDHPEADHHH@Z 000000018000f4e8 f   libucrt:lcmapstringa.obj
 0001:000105ec       memcpy_s                   00000001800115ec f   libucrt:cfout.obj
 0001:000107f8       common_flush_all           00000001800117f8 f   libucrt:fflush.obj
 0001:00010af4       ?free_crt_array_internal@@YAXQEAPEBX_K@Z 0000000180011af4 f   libucrt:inittime.obj
 0001:00011124       ?GetTableIndexFromLocaleName@@YAHPEB_W@Z 0000000180012124 f   libucrt:lcidtoname_downlevel.obj
 0001:00011220       ?initialize_multibyte@@YAHXZ 0000000180012220 f   libucrt:multibyte_initializer.obj
 0001:00011490       $$000000                   0000000180012490     libucrt:log10.obj
 0001:00011a3c       ?write_double_translated_ansi_nolock@@YA?AUwrite_result@?A0x9c548279@@HQEBDI@Z 0000000180012a3c f   libucrt:write.obj
 0001:00011c44       ?write_text_ansi_nolock@@YA?AUwrite_result@?A0x9c548279@@HQEBDI@Z 0000000180012c44 f   libucrt:write.obj
 0001:00011d4c       ?write_text_utf16le_nolock@@YA?AUwrite_result@?A0x9c548279@@HQEBDI@Z 0000000180012d4c f   libucrt:write.obj
 0001:00011e68       ?write_text_utf8_nolock@@YA?AUwrite_result@?A0x9c548279@@HQEBDI@Z 0000000180012e68 f   libucrt:write.obj
 0001:000123ac       ??$common_lseek_nolock@_J@@YA_JH_JH@Z 00000001800133ac f   libucrt:lseek.obj
 0001:00012798       common_control87           0000000180013798 f   libucrt:ieee.obj
 0001:00012a30       _call_matherr              0000000180013a30 f   libucrt:libm_error.obj
 0001:00012a98       _exception_enabled         0000000180013a98 f   libucrt:libm_error.obj
 0001:00012d30       _log_special_common        0000000180013d30 f   libucrt:log_special.obj
 0001:00013040       $$000000                   0000000180014040     libucrt:fpsr.obj
 0001:00013d60       $$000000                   0000000180014d60     LIBCMT:_chkstk_.obj
 0001:00013f10       $$000000                   0000000180014f10     libvcruntime:memcmp.obj
 0001:00013ff0       $$000000                   0000000180014ff0     LIBCMT:_guard_dispatch_.obj
 0001:00014010       __scrt_is_nonwritable_in_current_image$filt$0 0000000180015010 f   LIBCMT:utility.obj
 0001:00014028       ?fin$0@?0??dllmain_crt_process_attach@@YAHQEAUHINSTANCE__@@QEAX@Z@4HA 0000000180015028 f   LIBCMT:dll_dllmain.obj
 0001:0001403f       ?fin$0@?0??dllmain_crt_process_detach@@YAH_N@Z@4HA 000000018001503f f   LIBCMT:dll_dllmain.obj
 0001:0001405b       ?filt$0@?0??dllmain_dispatch@@YAHQEAUHINSTANCE__@@KQEAX@Z@4HA 000000018001505b f   LIBCMT:dll_dllmain.obj
 0001:00014091       _query_new_handler$fin$0   0000000180015091 f   libucrt:new_handler.obj
 0001:000140a7       ?filt$0@?0??common_exit@@YAXHW4_crt_exit_cleanup_mode@@W4_crt_exit_return_mode@@@Z@4HA 00000001800150a7 f   libucrt:exit.obj
 0001:000140c2       ?fin$1@?0??common_exit@@YAXHW4_crt_exit_cleanup_mode@@W4_crt_exit_return_mode@@@Z@4HA 00000001800150c2 f   libucrt:exit.obj
 0001:000140db       ?fin$0@?0???$?RV<lambda_99476a1ad63dd22509b5d3e65b0ffc95>@@AEAV<lambda_ad1ced32f4ac17aa236e5ef05d6b3b7c>@@V<lambda_f7424dd8d45958661754dc4f2697e9c3>@@@?$__crt_seh_guarded_call@X@@QEAAX$$QEAV<lambda_99476a1ad63dd22509b5d3e65b0ffc95>@@AEAV<lambda_ad1ced32f4ac17aa236e5ef05d6b3b7c>@@$$QEAV<lambda_f7424dd8d45958661754dc4f2697e9c3>@@@Z@4HA 00000001800150db f   libucrt:mbctype.obj
 0001:000140db       ?fin$0@?0???$?RV<lambda_fb3a7dec4e47f37f22dae91bb15c9095>@@AEAV<lambda_698284760c8add0bfb0756c19673e34b>@@V<lambda_dfb8eca1e75fef3034a8fb18dd509707>@@@?$__crt_seh_guarded_call@X@@QEAAX$$QEAV<lambda_fb3a7dec4e47f37f22dae91bb15c9095>@@AEAV<lambda_698284760c8add0bfb0756c19673e34b>@@$$QEAV<lambda_dfb8eca1e75fef3034a8fb18dd509707>@@@Z@4HA 00000001800150db f   libucrt:per_thread_data.obj
 0001:000140db       ?fin$0@?0???$?RV<lambda_c36588078e9f5dfd39652860aa6b3aaf>@@AEAV<lambda_ec61778202f4f5fc7e7711acc23c3bca>@@V<lambda_dc9d2797ccde5d239b4a0efae8ebd7db>@@@?$__crt_seh_guarded_call@P6AXH@Z@@QEAAP6AXH@Z$$QEAV<lambda_c36588078e9f5dfd39652860aa6b3aaf>@@AEAV<lambda_ec61778202f4f5fc7e7711acc23c3bca>@@$$QEAV<lambda_dc9d2797ccde5d239b4a0efae8ebd7db>@@@Z@4HA 00000001800150db f   libucrt:signal.obj
 0001:000140db       ?fin$0@?0???$?RV<lambda_72d1df2b273a38828b1ce30cbf4cdab5>@@AEAV<lambda_876a65b173b8412d3a47c70a915b0cf4>@@V<lambda_41932305e351933ebe8f8be3ed8bb5dc>@@@?$__crt_seh_guarded_call@X@@QEAAX$$QEAV<lambda_72d1df2b273a38828b1ce30cbf4cdab5>@@AEAV<lambda_876a65b173b8412d3a47c70a915b0cf4>@@$$QEAV<lambda_41932305e351933ebe8f8be3ed8bb5dc>@@@Z@4HA 00000001800150db f   libucrt:per_thread_data.obj
 0001:000140db       ?fin$0@?0???$?RV<lambda_5e887d1dcbef67a5eb4283622ba103bf>@@AEAV<lambda_4466841279450cc726390878d4a41900>@@V<lambda_341c25c0346d94847f1f3c463c57e077>@@@?$__crt_seh_guarded_call@X@@QEAAX$$QEAV<lambda_5e887d1dcbef67a5eb4283622ba103bf>@@AEAV<lambda_4466841279450cc726390878d4a41900>@@$$QEAV<lambda_341c25c0346d94847f1f3c463c57e077>@@@Z@4HA 00000001800150db f   libucrt:per_thread_data.obj
 0001:000140db       ?fin$0@?0???$?RV<lambda_b8c45f8f788dd370798f47cfe8ac3a86>@@AEAV<lambda_4e60a939b0d047cfe11ddc22648dfba9>@@V<lambda_332c3edc96d0294ec56c57d38c1cdfd5>@@@?$__crt_seh_guarded_call@H@@QEAAH$$QEAV<lambda_b8c45f8f788dd370798f47cfe8ac3a86>@@AEAV<lambda_4e60a939b0d047cfe11ddc22648dfba9>@@$$QEAV<lambda_332c3edc96d0294ec56c57d38c1cdfd5>@@@Z@4HA 00000001800150db f   libucrt:onexit.obj
 0001:000140db       ?fin$0@?0???$?RV<lambda_46352004c1216016012b18bd6f87e700>@@AEAV<lambda_3bd07e1a1191394380780325891bf33f>@@V<lambda_334532d3f185bcaa59b5be82d7d22bff>@@@?$__crt_seh_guarded_call@X@@QEAAX$$QEAV<lambda_46352004c1216016012b18bd6f87e700>@@AEAV<lambda_3bd07e1a1191394380780325891bf33f>@@$$QEAV<lambda_334532d3f185bcaa59b5be82d7d22bff>@@@Z@4HA 00000001800150db f   libucrt:per_thread_data.obj
 0001:000140f5       ?fin$0@?0???$?RV<lambda_e24bbb7b643b32fcea6fa61b31d4c984>@@AEAV<lambda_275893d493268fdec8709772e3fcec0e>@@V<lambda_9d71df4d7cf3f480f8d633942495c3b0>@@@?$__crt_seh_guarded_call@H@@QEAAH$$QEAV<lambda_e24bbb7b643b32fcea6fa61b31d4c984>@@AEAV<lambda_275893d493268fdec8709772e3fcec0e>@@$$QEAV<lambda_9d71df4d7cf3f480f8d633942495c3b0>@@@Z@4HA 00000001800150f5 f   libucrt:onexit.obj
 0001:00014112       __acrt_initialize_lowio$fin$0 0000000180015112 f   libucrt:ioinit.obj
 0001:00014112       __acrt_lowio_ensure_fh_exists$fin$0 0000000180015112 f   libucrt:osfinfo.obj
 0001:0001412b       __acrt_update_thread_multibyte_data$fin$0 000000018001512b f   libucrt:mbctype.obj
 0001:00014144       raise$fin$0                0000000180015144 f   libucrt:signal.obj
 0001:00014168       __acrt_uninitialize_locale$fin$0 0000000180015168 f   libucrt:wsetlocale.obj
 0001:00014168       __acrt_update_thread_locale_data$fin$0 0000000180015168 f   libucrt:locale_refcounting.obj
 0001:00014181       _fcloseall$fin$0           0000000180015181 f   libucrt:closeall.obj
 0001:0001419a       common_flush_all$fin$0     000000018001519a f   libucrt:fflush.obj
 0001:000141b4       common_flush_all$fin$1     00000001800151b4 f   libucrt:fflush.obj
 0001:000141cd       _write$fin$0               00000001800151cd f   libucrt:write.obj
 0001:000141e4       fclose$fin$0               00000001800151e4 f   libucrt:fclose.obj
 0001:000141fc       ?fin$0@?0???$?RV<lambda_bfedae4ebbf01fab1bb6dcc6a9e276e0>@@AEAV<lambda_2fe9b910cf3cbf4a0ab98a02ba45b3ec>@@V<lambda_237c231691f317818eb88cc1d5d642d6>@@@?$__crt_seh_guarded_call@H@@QEAAH$$QEAV<lambda_bfedae4ebbf01fab1bb6dcc6a9e276e0>@@AEAV<lambda_2fe9b910cf3cbf4a0ab98a02ba45b3ec>@@$$QEAV<lambda_237c231691f317818eb88cc1d5d642d6>@@@Z@4HA 00000001800151fc f   libucrt:close.obj
 0001:000141fc       ?fin$0@?0???$?RV<lambda_b521505b218e5242e90febf6bfebc422>@@AEAV<lambda_6978c1fb23f02e42e1d9e99668cc68aa>@@V<lambda_314360699dd331753a4119843814e9a7>@@@?$__crt_seh_guarded_call@H@@QEAAH$$QEAV<lambda_b521505b218e5242e90febf6bfebc422>@@AEAV<lambda_6978c1fb23f02e42e1d9e99668cc68aa>@@$$QEAV<lambda_314360699dd331753a4119843814e9a7>@@@Z@4HA 00000001800151fc f   libucrt:commit.obj
 0001:00014216       _ctrlfp$filt$0             0000000180015216 f   libucrt:fpctrl.obj
 0001:00014216       common_control87$filt$0    0000000180015216 f   libucrt:ieee.obj
 0001:00014250       _IsNonwritableInCurrentImage$filt$0 0000000180015250 f   LIBCMT:pesect.obj
 0001:00014270       ??__FemptyString@?1??convertToString@@YA?AV?$basic_string@DU?$char_traits@D@std@@V?$allocator@D@2@@std@@AEBV?$Local@VValue@v8@@@v8@@@Z@YAXXZ 0000000180015270 f   rfcio.obj
 0001:00014310       ??__F?constructor@Client@@0V?$Persistent@VFunction@v8@@V?$NonCopyablePersistentTraits@VFunction@v8@@@2@@v8@@A@@YAXXZ 0000000180015310 f   Client.obj
 0002:000003e8       ??constructor$initializer$@Client@@0P6AXXZEA@@3P6AXXZEA 00000001800163e8     Client.obj
 0002:00000408       ?__scrt_initialize_tss_var@@3P6AHXZEA 0000000180016408     LIBCMT:thread_safe_statics.obj
 0002:000005c8       GS_ExceptionPointers       00000001800165c8     LIBCMT:gs_report.obj
 0002:00000610       ?ExceptionTemplate@?1??_CxxThrowException@@9@4UEHExceptionRecord@@B 0000000180016610     libvcruntime:throw.obj
 0002:00000650       ?module_names@?A0x61ce2399@@3QBQEB_WB 0000000180016650     libvcruntime:winapi_downlevel.obj
 0002:0000071c       ?candidate_modules@?1??try_get_EventRegister@@YAP6AKPEBU_GUID@@P6AX0KE_K1PEAU_EVENT_FILTER_DESCRIPTOR@@PEAX@Z3PEA_K@ZXZ@4QBW4module_id@?A0x61ce2399@@B 000000018001671c     libvcruntime:winapi_downlevel.obj
 0002:00000730       ?candidate_modules@?1??try_get_EventSetInformation@@YAP6AK_KW4_EVENT_INFO_CLASS@@PEAXK@ZXZ@4QBW4module_id@?A0x61ce2399@@B 0000000180016730     libvcruntime:winapi_downlevel.obj
 0002:0000074c       ?candidate_modules@?1??try_get_EventUnregister@@YAP6AK_K@ZXZ@4QBW4module_id@?A0x61ce2399@@B 000000018001674c     libvcruntime:winapi_downlevel.obj
 0002:00000760       ?candidate_modules@?1??try_get_EventWriteTransfer@@YAP6AK_KPEBU_EVENT_DESCRIPTOR@@PEBU_GUID@@2KPEAU_EVENT_DATA_DESCRIPTOR@@@ZXZ@4QBW4module_id@?A0x61ce2399@@B 0000000180016760     libvcruntime:winapi_downlevel.obj
 0002:00000780       ?candidate_modules@?1??try_get_FlsAlloc@@YAP6AKP6AXPEAX@Z@ZXZ@4QBW4module_id@?A0x61ce2399@@B 0000000180016780     libvcruntime:winapi_downlevel.obj
 0002:00000798       ?candidate_modules@?1??try_get_FlsFree@@YAP6AHK@ZXZ@4QBW4module_id@?A0x61ce2399@@B 0000000180016798     libvcruntime:winapi_downlevel.obj
 0002:000007a8       ?candidate_modules@?1??try_get_FlsGetValue@@YAP6APEAXK@ZXZ@4QBW4module_id@?A0x61ce2399@@B 00000001800167a8     libvcruntime:winapi_downlevel.obj
 0002:000007c0       ?candidate_modules@?1??try_get_FlsSetValue@@YAP6AHKPEAX@ZXZ@4QBW4module_id@?A0x61ce2399@@B 00000001800167c0     libvcruntime:winapi_downlevel.obj
 0002:000007d8       ?candidate_modules@?1??try_get_InitializeCriticalSectionEx@@YAP6AHPEAU_RTL_CRITICAL_SECTION@@KK@ZXZ@4QBW4module_id@?A0x61ce2399@@B 00000001800167d8     libvcruntime:winapi_downlevel.obj
 0002:00000d00       ?rttiTable@@3QBQEBDB       0000000180016d00     libvcruntime:undname.obj
 0002:00000d30       ?tokenTable@@3QBQEBDB      0000000180016d30     libvcruntime:undname.obj
 0002:00000da0       ?nameTable@@3QBQEBDB       0000000180016da0     libvcruntime:undname.obj
 0002:00001340       __acrt_initializers        0000000180017340     libucrt:initialization.obj
 0002:00001430       errtable                   0000000180017430     libucrt:errno.obj
 0002:00002270       module_names               0000000180018270     libucrt:winapi_thunks.obj
 0002:000027a0       ?candidate_modules@?1??try_get_FlsAlloc@@YAP6AKP6AXPEAX@Z@ZXZ@4QBW4module_id@?A0x63058377@@B 00000001800187a0     libucrt:winapi_thunks.obj
 0002:000027a8       ?candidate_modules@?1??try_get_FlsFree@@YAP6AHK@ZXZ@4QBW4module_id@?A0x63058377@@B 00000001800187a8     libucrt:winapi_thunks.obj
 0002:000027b0       ?candidate_modules@?1??try_get_FlsGetValue@@YAP6APEAXK@ZXZ@4QBW4module_id@?A0x63058377@@B 00000001800187b0     libucrt:winapi_thunks.obj
 0002:000027b8       ?candidate_modules@?1??try_get_FlsSetValue@@YAP6AHKPEAX@ZXZ@4QBW4module_id@?A0x63058377@@B 00000001800187b8     libucrt:winapi_thunks.obj
 0002:000027c0       ?candidate_modules@?1??try_get_GetCurrentPackageId@@YAP6AJPEAIPEAE@ZXZ@4QBW4module_id@?A0x63058377@@B 00000001800187c0     libucrt:winapi_thunks.obj
 0002:000027e0       ?candidate_modules@?1??try_get_InitializeCriticalSectionEx@@YAP6AHPEAU_RTL_CRITICAL_SECTION@@KK@ZXZ@4QBW4module_id@?A0x63058377@@B 00000001800187e0     libucrt:winapi_thunks.obj
 0002:000027e8       ?candidate_modules@?1??try_get_LCMapStringEx@@YAP6AHPEB_WK0HPEA_WHPEAU_nlsversioninfo@@PEAX_J@ZXZ@4QBW4module_id@?A0x63058377@@B 00000001800187e8     libucrt:winapi_thunks.obj
 0002:00002800       ?candidate_modules@?1??try_get_LocaleNameToLCID@@YAP6AKPEB_WK@ZXZ@4QBW4module_id@?A0x63058377@@B 0000000180018800     libucrt:winapi_thunks.obj
 0002:00002820       _mb_locale_names           0000000180018820     libucrt:mbctype.obj
 0002:00003280       LcidToLocaleNameTable      0000000180019280     libucrt:lcidtoname_downlevel.obj
 0002:00004cd0       LocaleNameToIndexTable     000000018001acd0     libucrt:lcidtoname_downlevel.obj
 0002:00006570       __real_ninf                000000018001c570     libucrt:log10.obj
 0002:00006580       __real_inf                 000000018001c580     libucrt:log10.obj
 0002:00006590       __real_neg_qnan            000000018001c590     libucrt:log10.obj
 0002:000065a0       __real_qnanbit             000000018001c5a0     libucrt:log10.obj
 0002:000065b0       __int_1023                 000000018001c5b0     libucrt:log10.obj
 0002:000065c0       __mask_001                 000000018001c5c0     libucrt:log10.obj
 0002:000065d0       __mask_mant                000000018001c5d0     libucrt:log10.obj
 0002:000065e0       __mask_mant_top8           000000018001c5e0     libucrt:log10.obj
 0002:000065f0       __mask_mant9               000000018001c5f0     libucrt:log10.obj
 0002:00006600       __real_log10_e             000000018001c600     libucrt:log10.obj
 0002:00006610       __real_log10_e_lead        000000018001c610     libucrt:log10.obj
 0002:00006620       __real_log10_e_tail        000000018001c620     libucrt:log10.obj
 0002:00006630       __real_log10_2_lead        000000018001c630     libucrt:log10.obj
 0002:00006640       __real_log10_2_tail        000000018001c640     libucrt:log10.obj
 0002:00006650       __real_two                 000000018001c650     libucrt:log10.obj
 0002:00006660       __real_one                 000000018001c660     libucrt:log10.obj
 0002:00006670       __real_half                000000018001c670     libucrt:log10.obj
 0002:00006680       __mask_100                 000000018001c680     libucrt:log10.obj
 0002:00006690       __real_1_over_512          000000018001c690     libucrt:log10.obj
 0002:000066a0       __real_1_over_2            000000018001c6a0     libucrt:log10.obj
 0002:000066b0       __real_1_over_3            000000018001c6b0     libucrt:log10.obj
 0002:000066c0       __real_1_over_4            000000018001c6c0     libucrt:log10.obj
 0002:000066d0       __real_1_over_5            000000018001c6d0     libucrt:log10.obj
 0002:000066e0       __real_1_over_6            000000018001c6e0     libucrt:log10.obj
 0002:000066f0       __real_neg_1023            000000018001c6f0     libucrt:log10.obj
 0002:00006700       __mask_2045                000000018001c700     libucrt:log10.obj
 0002:00006710       __real_threshold           000000018001c710     libucrt:log10.obj
 0002:00006720       __real_near_one_lt         000000018001c720     libucrt:log10.obj
 0002:00006730       __real_near_one_gt         000000018001c730     libucrt:log10.obj
 0002:00006740       __real_min_norm            000000018001c740     libucrt:log10.obj
 0002:00006750       __real_notsign             000000018001c750     libucrt:log10.obj
 0002:00006760       __real_ca1                 000000018001c760     libucrt:log10.obj
 0002:00006770       __real_ca2                 000000018001c770     libucrt:log10.obj
 0002:00006780       __real_ca3                 000000018001c780     libucrt:log10.obj
 0002:00006790       __real_ca4                 000000018001c790     libucrt:log10.obj
 0002:000067a0       __mask_lower               000000018001c7a0     libucrt:log10.obj
 0002:000067b0       __flag_x_zero              000000018001c7b0     libucrt:log10.obj
 0002:000067b4       __flag_x_neg               000000018001c7b4     libucrt:log10.obj
 0002:000067b8       __flag_x_nan               000000018001c7b8     libucrt:log10.obj
 0002:00008000       __real@433fffffffffffff    000000018001e000     libucrt:fpsr.obj
 0002:00008008       __real@c33fffffffffffff    000000018001e008     libucrt:fpsr.obj
 0002:00008ab8       ?_TlgEvent@?3??__telemetry_main_invoke_trigger@@9@4U<unnamed-type-_TlgEvent>@?3??1@YAXQEAUHINSTANCE__@@@Z@B 000000018001eab8     libvcruntime:telemetry.obj
 0002:00008af4       ?_TlgEvent@?3??__telemetry_main_return_trigger@@9@4U<unnamed-type-_TlgEvent>@?3??1@YAXQEAUHINSTANCE__@@@Z@B 000000018001eaf4     libvcruntime:telemetry.obj
 0002:00008b2f       ?_Tlg_Microsoft_CRTProviderProv_Meta@@3U<unnamed-type-_Tlg_Microsoft_CRTProviderProv_Meta>@@B 000000018001eb2f     libvcruntime:telemetry.obj
 0002:00009048       $unwind$??$uninitialize_environment_internal@D@@YAXAEAPEAPEAD@Z 000000018001f048     libucrt:environment_initialization.obj
 0002:00009048       $unwind$__dcrt_uninitialize_environments_nolock 000000018001f048     libucrt:environment_initialization.obj
 0002:00009048       $unwind$?initialize_multibyte@@YAHXZ 000000018001f048     libucrt:multibyte_initializer.obj
 0002:00009048       $unwind$__pctype_func      000000018001f048     libucrt:ctype.obj
 0002:00009048       $unwind$__acrt_release_locale_ref 000000018001f048     libucrt:locale_refcounting.obj
 0002:00009048       $unwind$??$uninitialize_environment_internal@_W@@YAXAEAPEAPEA_W@Z 000000018001f048     libucrt:environment_initialization.obj
 0002:00009048       $unwind$?dllmain_crt_dispatch@@YAHQEAUHINSTANCE__@@KQEAX@Z 000000018001f048     LIBCMT:dll_dllmain.obj
 0002:00009048       $unwind$tolower            000000018001f048     libucrt:tolower_toupper.obj
 0002:00009048       $unwind$atexit             000000018001f048     LIBCMT:utility.obj
 0002:00009048       $unwind$__scrt_acquire_startup_lock 000000018001f048     LIBCMT:utility.obj
 0002:00009048       $unwind$__scrt_dllmain_before_initialize_c 000000018001f048     LIBCMT:utility.obj
 0002:00009048       $unwind$__scrt_dllmain_after_initialize_c 000000018001f048     LIBCMT:utility.obj
 0002:00009048       $unwind$__scrt_dllmain_uninitialize_c 000000018001f048     LIBCMT:utility.obj
 0002:00009048       $unwind$__scrt_dllmain_uninitialize_critical 000000018001f048     LIBCMT:utility.obj
 0002:00009048       $unwind$__scrt_dllmain_crt_thread_attach 000000018001f048     LIBCMT:utility.obj
 0002:00009048       $unwind$__scrt_dllmain_crt_thread_detach 000000018001f048     LIBCMT:utility.obj
 0002:00009048       $unwind$_getfpstatusword   000000018001f048     libucrt:_fenvutils.obj
 0002:00009048       $unwind$__GSHandlerCheck   000000018001f048     LIBCMT:_gshandler_.obj
 0002:00009048       $unwind$uninitialize_environment 000000018001f048     libucrt:initialization.obj
 0002:00009048       $unwind$_msize             000000018001f048     libucrt:msize.obj
 0002:00009048       $unwind$_statfp            000000018001f048     libucrt:fpctrl.obj
 0002:00009048       $unwind$initialize_c       000000018001f048     libucrt:initialization.obj
 0002:00009048       $unwind$_isatty            000000018001f048     libucrt:isatty.obj
 0002:00009048       $unwind$__acrt_initialize_heap 000000018001f048     libucrt:heap_handle.obj
 0002:00009048       $unwind$_stricmp           000000018001f048     libucrt:stricmp.obj
 0002:00009048       $unwind$?InitAll@@YAXV?$Local@VObject@v8@@@v8@@@Z 000000018001f048     rfc.obj
 0002:00009048       $unwind$__acrt_thread_detach 000000018001f048     libucrt:initialization.obj
 0002:00009048       $unwind$??__FemptyString@?1??convertToString@@YA?AV?$basic_string@DU?$char_traits@D@std@@V?$allocator@D@2@@std@@AEBV?$Local@VValue@v8@@@v8@@@Z@YAXXZ 000000018001f048     rfcio.obj
 0002:00009048       $unwind$__acrt_DownlevelLocaleNameToLCID 000000018001f048     libucrt:lcidtoname_downlevel.obj
 0002:00009048       $unwind$?state_case_normal_tchar@?$output_processor@DV?$string_output_adapter@D@__crt_stdio_output@@V?$standard_base@DV?$string_output_adapter@D@__crt_stdio_output@@@2@@__crt_stdio_output@@AEAA_ND@Z 000000018001f048     libucrt:output.obj
 0002:00009048       $unwind$?state_case_size@?$output_processor@DV?$string_output_adapter@D@__crt_stdio_output@@V?$standard_base@DV?$string_output_adapter@D@__crt_stdio_output@@@2@@__crt_stdio_output@@AEAA_NXZ 000000018001f048     libucrt:output.obj
 0002:00009048       $unwind$__vcrt_initialize  000000018001f048     libvcruntime:initialization.obj
 0002:00009048       $unwind$_get_osfhandle     000000018001f048     libucrt:osfinfo.obj
 0002:00009048       $unwind$__dcrt_terminate_console_output 000000018001f048     libucrt:initcon.obj
 0002:00009048       $unwind$__vcrt_uninitialize_critical 000000018001f048     libvcruntime:initialization.obj
 0002:00009048       $unwind$_set_errno_from_matherr 000000018001f048     libucrt:fpexcept.obj
 0002:00009048       $unwind$__acrt_initialize_ptd 000000018001f048     libucrt:per_thread_data.obj
 0002:00009048       $unwind$__scrt_initialize_default_local_stdio_options 000000018001f048     LIBCMT:default_local_stdio_options.obj
 0002:00009048       $unwind$?__scrt_uninitialize_thread_safe_statics@@YAXXZ 000000018001f048     LIBCMT:thread_safe_statics.obj
 0002:00009048       $unwind$__vcrt_uninitialize_telemetry_provider 000000018001f048     libvcruntime:telemetry.obj
 0002:00009048       $unwind$_getfpcontrolword  000000018001f048     libucrt:_fenvutils.obj
 0002:00009048       $unwind$__acrt_uninitialize_ptd 000000018001f048     libucrt:per_thread_data.obj
 0002:00009048       $unwind$__vcrt_thread_attach 000000018001f048     libvcruntime:initialization.obj
 0002:00009048       $unwind$__vcrt_thread_detach 000000018001f048     libvcruntime:initialization.obj
 0002:00009048       $unwind$__acrt_initialize_multibyte 000000018001f048     libucrt:mbctype.obj
 0002:00009048       $unwind$__vcrt_initialize_ptd 000000018001f048     libvcruntime:per_thread_data.obj
 0002:00009048       $unwind$__doserrno         000000018001f048     libucrt:errno.obj
 0002:00009048       $unwind$_errno             000000018001f048     libucrt:errno.obj
 0002:00009048       $unwind$_invoke_watson     000000018001f048     libucrt:invalid_parameter.obj
 0002:00009048       $unwind$abort              000000018001f048     libucrt:abort.obj
 0002:00009048       $unwind$__acrt_initialize_command_line 000000018001f048     libucrt:argv_data.obj
 0002:00009048       $unwind$__vcrt_uninitialize_ptd 000000018001f048     libvcruntime:per_thread_data.obj
 0002:00009048       $unwind$__vcrt_freefls     000000018001f048     libvcruntime:per_thread_data.obj
 0002:00009048       $unwind$_fileno            000000018001f048     libucrt:fileno.obj
 0002:00009048       $unwind$__acrt_uninitialize_critical 000000018001f048     libucrt:initialization.obj
 0002:00009048       $unwind$__acrt_thread_attach 000000018001f048     libucrt:initialization.obj
 0002:00009050       $unwind$sprintf            000000018001f050     error.obj
 0002:0000905c       $unwind$?RfcLibError@@YA?AV?$Local@VObject@v8@@@v8@@PEAU_RFC_ERROR_INFO@@PEAVIsolate@2@@Z 000000018001f05c     error.obj
 0002:0000906c       $unwind$?AbapError@@YA?AV?$Local@VObject@v8@@@v8@@PEAU_RFC_ERROR_INFO@@PEAVIsolate@2@@Z 000000018001f06c     error.obj
 0002:00009080       $unwind$?wrapError@@YA?AV?$Local@VValue@v8@@@v8@@PEAU_RFC_ERROR_INFO@@@Z 000000018001f080     error.obj
 0002:0000909c       $unwind$?convertToString@@YA?AV?$basic_string@DU?$char_traits@D@std@@V?$allocator@D@2@@std@@AEBV?$Local@VValue@v8@@@v8@@@Z 000000018001f09c     rfcio.obj
 0002:000090a8       $unwind$?fillString@@YAPEA_WAEBV?$Local@VValue@v8@@@v8@@@Z 000000018001f0a8     rfcio.obj
 0002:000090c8       $unwind$?fillVariable@@YA?AV?$Local@VValue@v8@@@v8@@W4_RFCTYPE@@PEAURFC_DATA_CONTAINER@@PEA_WV12@PEAU_RFC_TYPE_DESC_HANDLE@@@Z 000000018001f0c8     rfcio.obj
 0002:000090e0       $unwind$?fillFunctionParameter@@YA?AV?$Local@VValue@v8@@@v8@@PEAU_RFC_FUNCTION_DESC_HANDLE@@PEAURFC_DATA_CONTAINER@@V12@2@Z 000000018001f0e0     rfcio.obj
 0002:000090f8       $unwind$?wrapResult@@YA?AV?$Local@VObject@v8@@@v8@@PEAU_RFC_FUNCTION_DESC_HANDLE@@PEAURFC_DATA_CONTAINER@@_N@Z 000000018001f0f8     rfcio.obj
 0002:00009114       $chain$1$?wrapResult@@YA?AV?$Local@VObject@v8@@@v8@@PEAU_RFC_FUNCTION_DESC_HANDLE@@PEAURFC_DATA_CONTAINER@@_N@Z 000000018001f114     rfcio.obj
 0002:0000912c       $chain$2$?wrapResult@@YA?AV?$Local@VObject@v8@@@v8@@PEAU_RFC_FUNCTION_DESC_HANDLE@@PEAURFC_DATA_CONTAINER@@_N@Z 000000018001f12c     rfcio.obj
 0002:0000913c       $unwind$?wrapString@@YA?AV?$Local@VValue@v8@@@v8@@PEA_WH_N@Z 000000018001f13c     rfcio.obj
 0002:00009158       $chain$0$?wrapString@@YA?AV?$Local@VValue@v8@@@v8@@PEA_WH_N@Z 000000018001f158     rfcio.obj
 0002:0000916c       $chain$1$?wrapString@@YA?AV?$Local@VValue@v8@@@v8@@PEA_WH_N@Z 000000018001f16c     rfcio.obj
 0002:0000917c       $unwind$?wrapStructure@@YA?AV?$Local@VValue@v8@@@v8@@PEAU_RFC_TYPE_DESC_HANDLE@@PEAURFC_DATA_CONTAINER@@_N@Z 000000018001f17c     rfcio.obj
 0002:00009198       $chain$1$?wrapStructure@@YA?AV?$Local@VValue@v8@@@v8@@PEAU_RFC_TYPE_DESC_HANDLE@@PEAURFC_DATA_CONTAINER@@_N@Z 000000018001f198     rfcio.obj
 0002:000091b0       $chain$2$?wrapStructure@@YA?AV?$Local@VValue@v8@@@v8@@PEAU_RFC_TYPE_DESC_HANDLE@@PEAURFC_DATA_CONTAINER@@_N@Z 000000018001f1b0     rfcio.obj
 0002:000091c0       $unwind$?wrapVariable@@YA?AV?$Local@VValue@v8@@@v8@@W4_RFCTYPE@@PEAURFC_DATA_CONTAINER@@PEA_WIPEAU_RFC_TYPE_DESC_HANDLE@@_N@Z 000000018001f1c0     rfcio.obj
 0002:000091e0       $unwind$?type_case_Z@?$output_processor@DV?$string_output_adapter@D@__crt_stdio_output@@V?$standard_base@DV?$string_output_adapter@D@__crt_stdio_output@@@2@@__crt_stdio_output@@AEAA_NXZ 000000018001f1e0     libucrt:output.obj
 0002:000091e0       $unwind$?type_case_s@?$output_processor@DV?$string_output_adapter@D@__crt_stdio_output@@V?$standard_base@DV?$string_output_adapter@D@__crt_stdio_output@@@2@@__crt_stdio_output@@AEAA_NXZ 000000018001f1e0     libucrt:output.obj
 0002:000091e0       $unwind$__acrt_execute_uninitializers 000000018001f1e0     libucrt:shared_initialization.obj
 0002:000091e0       $unwind$?type_case_n@?$output_processor@DV?$string_output_adapter@D@__crt_stdio_output@@V?$standard_base@DV?$string_output_adapter@D@__crt_stdio_output@@@2@@__crt_stdio_output@@AEAA_NXZ 000000018001f1e0     libucrt:output.obj
 0002:000091e0       $unwind$?__scrt_initialize_thread_safe_statics@@YAHXZ 000000018001f1e0     LIBCMT:thread_safe_statics.obj
 0002:000091e0       $unwind$??$common_lseek_nolock@_J@@YA_JH_JH@Z 000000018001f1e0     libucrt:lseek.obj
 0002:000091e0       $unwind$?TraceLoggingRegister@__vcrt_trace_logging_provider@@YAJPEBU_TlgProvider_t@1@PEBU_GUID@@P6AX1KE_K2PEAU_EVENT_FILTER_DESCRIPTOR@@PEAX@Z4@Z 000000018001f1e0     libvcruntime:telemetry.obj
 0002:000091e0       $unwind$__acrt_getptd_noexit 000000018001f1e0     libucrt:per_thread_data.obj
 0002:000091e0       $unwind$??R<lambda_ad1ced32f4ac17aa236e5ef05d6b3b7c>@@QEBAXXZ 000000018001f1e0     libucrt:mbctype.obj
 0002:000091e0       $unwind$memcpy_s           000000018001f1e0     libucrt:cfout.obj
 0002:000091e0       $unwind$_Init_thread_wait  000000018001f1e0     LIBCMT:thread_safe_statics.obj
 0002:000091e0       $unwind$_initterm_e        000000018001f1e0     libucrt:initterm.obj
 0002:000091e0       $unwind$__vcrt_getptd_noexit 000000018001f1e0     libvcruntime:per_thread_data.obj
 0002:000091e0       $unwind$__vcrt_FlsSetValue 000000018001f1e0     libvcruntime:winapi_downlevel.obj
 0002:000091e0       $unwind$_exception_enabled 000000018001f1e0     libucrt:libm_error.obj
 0002:000091e0       $unwind$?free_crt_array_internal@@YAXQEAPEBX_K@Z 000000018001f1e0     libucrt:inittime.obj
 0002:000091e0       $unwind$__acrt_stdio_flush_nolock 000000018001f1e0     libucrt:fflush.obj
 0002:000091e0       $unwind$?assign@?$basic_string@DU?$char_traits@D@std@@V?$allocator@D@2@@std@@QEAAAEAV12@PEBD_K@Z 000000018001f1e0     rfcio.obj
 0002:000091e0       $unwind$_RTC_Terminate     000000018001f1e0     LIBCMT:_initsect_.obj
 0002:000091e0       $unwind$__acrt_LocaleNameToLCID 000000018001f1e0     libucrt:winapi_thunks.obj
 0002:000091e0       $unwind$_RTC_Initialize    000000018001f1e0     LIBCMT:_initsect_.obj
 0002:000091e0       $unwind$_DllMainCRTStartup 000000018001f1e0     LIBCMT:dll_dllmain.obj
 0002:000091e0       $unwind$__acrt_FlsSetValue 000000018001f1e0     libucrt:winapi_thunks.obj
 0002:000091f0       $unwind$__acrt_free_locale 000000018001f1f0     libucrt:locale_refcounting.obj
 0002:000091f0       $unwind$??$ensure_buffer_is_big_enough@D@formatting_buffer@__crt_stdio_output@@QEAA_N_K@Z 000000018001f1f0     libucrt:output.obj
 0002:000091f0       $unwind$__acrt_execute_initializers 000000018001f1f0     libucrt:shared_initialization.obj
 0002:000091f0       $unwind$__acrt_lowio_create_handle_array 000000018001f1f0     libucrt:osfinfo.obj
 0002:000091f0       $unwind$__vcrt_InitializeCriticalSectionEx 000000018001f1f0     libvcruntime:winapi_downlevel.obj
 0002:000091f0       $unwind$?dllmain_raw@@YAHQEAUHINSTANCE__@@KQEAX@Z 000000018001f1f0     LIBCMT:dll_dllmain.obj
 0002:000091f0       $unwind$?setSBCS@@YAXPEAU__crt_multibyte_data@@@Z 000000018001f1f0     libucrt:mbctype.obj
 0002:000091f0       $unwind$__acrt_InitializeCriticalSectionEx 000000018001f1f0     libucrt:winapi_thunks.obj
 0002:000091f0       $unwind$_seh_filter_exe    000000018001f1f0     libucrt:exception_filter.obj
 0002:000091f0       $unwind$?assign@?$basic_string@DU?$char_traits@D@std@@V?$allocator@D@2@@std@@QEAAAEAV12@AEBV12@_K1@Z 000000018001f1f0     rfcio.obj
 0002:000091f0       $unwind$_recalloc_base     000000018001f1f0     libucrt:recalloc.obj
 0002:000091f0       $unwind$__scrt_dllmain_exception_filter 000000018001f1f0     LIBCMT:utility.obj
 0002:00009204       $unwind$_onexit            000000018001f204     LIBCMT:utility.obj
 0002:00009204       $unwind$fegetenv           000000018001f204     libucrt:fegetenv.obj
 0002:00009204       $unwind$feholdexcept       000000018001f204     libucrt:feholdexcept.obj
 0002:00009204       $unwind$initialize_pointers 000000018001f204     libucrt:initialization.obj
 0002:00009204       $unwind$fesetenv           000000018001f204     libucrt:fesetenv.obj
 0002:00009204       $unwind$uninitialize_allocated_memory 000000018001f204     libucrt:initialization.obj
 0002:00009204       $unwind$?DloadReleaseSectionWriteAccess@@YAXXZ 000000018001f204     DelayImp:delayhlp.obj
 0002:00009204       $unwind$??0exception@std@@QEAA@AEBV01@@Z 000000018001f204     libcpmt:xthrow.obj
 0002:00009204       $unwind$__scrt_release_startup_lock 000000018001f204     LIBCMT:utility.obj
 0002:00009204       $unwind$??0bad_alloc@std@@QEAA@AEBV01@@Z 000000018001f204     libcpmt:xthrow.obj
 0002:00009204       $unwind$__scrt_initialize_crt 000000018001f204     LIBCMT:utility.obj
 0002:00009204       $unwind$?exit_or_terminate_process@@YAXI@Z 000000018001f204     libucrt:exit.obj
 0002:00009204       $unwind$__scrt_uninitialize_crt 000000018001f204     LIBCMT:utility.obj
 0002:00009204       $unwind$??0logic_error@std@@QEAA@AEBV01@@Z 000000018001f204     libcpmt:xthrow.obj
 0002:00009204       $unwind$??0length_error@std@@QEAA@AEBV01@@Z 000000018001f204     libcpmt:xthrow.obj
 0002:00009204       $unwind$?ConnectAsync@Client@@CAXPEAUuv_work_s@@@Z 000000018001f204     Client.obj
 0002:00009204       $unwind$strcpy_s           000000018001f204     libucrt:strcpy_s.obj
 0002:00009204       $unwind$??0out_of_range@std@@QEAA@AEBV01@@Z 000000018001f204     libcpmt:xthrow.obj
 0002:00009204       $unwind$__acrt_uninitialize_stdio 000000018001f204     libucrt:_file.obj
 0002:00009204       $unwind$_setfpstatusword   000000018001f204     libucrt:_fenvutils.obj
 0002:00009204       $unwind$__acrt_uninitialize_locks 000000018001f204     libucrt:locks.obj
 0002:00009204       $unwind$??0?$output_processor@DV?$string_output_adapter@D@__crt_stdio_output@@V?$standard_base@DV?$string_output_adapter@D@__crt_stdio_output@@@2@@__crt_stdio_output@@QEAA@AEBV?$string_output_adapter@D@1@_KQEBDQEAU__crt_locale_pointers@@QEAD@Z 000000018001f204     libucrt:output.obj
 0002:00009204       $unwind$__acrt_initialize_locks 000000018001f204     libucrt:locks.obj
 0002:00009204       $unwind$?_Grow@?$basic_string@DU?$char_traits@D@std@@V?$allocator@D@2@@std@@QEAA_N_K_N@Z 000000018001f204     rfcio.obj
 0002:00009204       $unwind$?state_case_normal@?$output_processor@DV?$string_output_adapter@D@__crt_stdio_output@@V?$standard_base@DV?$string_output_adapter@D@__crt_stdio_output@@@2@@__crt_stdio_output@@AEAA_NXZ 000000018001f204     libucrt:output.obj
 0002:00009204       $unwind$_malloc_base       000000018001f204     libucrt:malloc_base.obj
 0002:00009204       $unwind$_set_statfp        000000018001f204     libucrt:fpctrl.obj
 0002:00009204       $unwind$__acrt_update_multibyte_info 000000018001f204     libucrt:locale_update.obj
 0002:00009204       $unwind$_clrfp             000000018001f204     libucrt:fpctrl.obj
 0002:00009204       $unwind$__acrt_uninitialize_winapi_thunks 000000018001f204     libucrt:winapi_thunks.obj
 0002:00009204       $unwind$__acrt_update_locale_info 000000018001f204     libucrt:locale_update.obj
 0002:00009204       $unwind$_calloc_base       000000018001f204     libucrt:calloc_base.obj
 0002:00009204       $unwind$load_exe_hook      000000018001f204     win_delay_load_hook.obj
 0002:00009204       $unwind$_clearfp           000000018001f204     libucrt:ieee.obj
 0002:00009204       $unwind$__acrt_fp_strflt_to_string 000000018001f204     libucrt:_fptostr.obj
 0002:00009204       $unwind$__raise_securityfailure 000000018001f204     LIBCMT:gs_report.obj
 0002:00009204       $unwind$?Reopen@Client@@CAXAEBV?$FunctionCallbackInfo@VValue@v8@@@v8@@@Z 000000018001f204     Client.obj
 0002:00009204       $unwind$?InvokeAsync@Client@@CAXPEAUuv_work_s@@@Z 000000018001f204     Client.obj
 0002:00009204       $unwind$??_Gtype_info@@UEAAPEAXI@Z 000000018001f204     LIBCMT:std_type_info_static.obj
 0002:00009204       $unwind$??2@YAPEAX_K@Z     000000018001f204     LIBCMT:new_scalar.obj
 0002:00009204       $unwind$??0bad_array_new_length@std@@QEAA@AEBV01@@Z 000000018001f204     LIBCMT:throw_bad_alloc.obj
 0002:00009204       $unwind$?Unref@ObjectWrap@node@@MEAAXXZ 000000018001f204     Client.obj
 0002:00009204       $unwind$__acrt_freeptd     000000018001f204     libucrt:per_thread_data.obj
 0002:00009204       $unwind$_fflush_nolock     000000018001f204     libucrt:fflush.obj
 0002:00009204       $unwind$_Init_thread_header 000000018001f204     LIBCMT:thread_safe_statics.obj
 0002:00009204       $unwind$__vcrt_freeptd     000000018001f204     libvcruntime:per_thread_data.obj
 0002:00009204       $unwind$_Init_thread_footer 000000018001f204     LIBCMT:thread_safe_statics.obj
 0002:00009204       $unwind$?Ref@ObjectWrap@node@@MEAAXXZ 000000018001f204     Client.obj
 0002:00009204       $unwind$__vcrt_uninitialize_locks 000000018001f204     libvcruntime:locks.obj
 0002:00009204       $unwind$__std_exception_destroy 000000018001f204     libvcruntime:std_exception.obj
 0002:00009204       $unwind$?type_case_integer@?$output_processor@DV?$string_output_adapter@D@__crt_stdio_output@@V?$standard_base@DV?$string_output_adapter@D@__crt_stdio_output@@@2@@__crt_stdio_output@@AEAA_NI_N@Z 000000018001f204     libucrt:output.obj
 0002:00009204       $unwind$__std_type_info_destroy_list 000000018001f204     libvcruntime:std_type_info.obj
 0002:00009204       $unwind$__vcrt_initialize_locks 000000018001f204     libvcruntime:locks.obj
 0002:00009204       $unwind$_Init_thread_notify 000000018001f204     LIBCMT:thread_safe_statics.obj
 0002:00009204       $unwind$__acrt_stdio_free_buffer_nolock 000000018001f204     libucrt:_freebuf.obj
 0002:00009204       $unwind$__vcrt_uninitialize 000000018001f204     libvcruntime:initialization.obj
 0002:0000920c       $chain$0$?_Grow@?$basic_string@DU?$char_traits@D@std@@V?$allocator@D@2@@std@@QEAA_N_K_N@Z 000000018001f20c     rfcio.obj
 0002:00009220       $chain$2$?_Grow@?$basic_string@DU?$char_traits@D@std@@V?$allocator@D@2@@std@@QEAA_N_K_N@Z 000000018001f220     rfcio.obj
 0002:00009234       $chain$3$?_Grow@?$basic_string@DU?$char_traits@D@std@@V?$allocator@D@2@@std@@QEAA_N_K_N@Z 000000018001f234     rfcio.obj
 0002:00009244       $unwind$__acrt_FlsAlloc    000000018001f244     libucrt:winapi_thunks.obj
 0002:00009244       $unwind$??_Glength_error@std@@UEAAPEAXI@Z 000000018001f244     libcpmt:xthrow.obj
 0002:00009244       $unwind$?type_case_c_tchar@?$output_processor@DV?$string_output_adapter@D@__crt_stdio_output@@V?$standard_base@DV?$string_output_adapter@D@__crt_stdio_output@@@2@@__crt_stdio_output@@AEAA_ND@Z 000000018001f244     libucrt:output.obj
 0002:00009244       $unwind$__acrt_uninitialize_lowio 000000018001f244     libucrt:ioinit.obj
 0002:00009244       $unwind$__vcrt_FlsGetValue 000000018001f244     libvcruntime:winapi_downlevel.obj
 0002:00009244       $unwind$??_GObjectWrap@node@@UEAAPEAXI@Z 000000018001f244     Client.obj
 0002:00009244       $unwind$??_GClient@@EEAAPEAXI@Z 000000018001f244     Client.obj
 0002:00009244       $unwind$__acrt_getptd      000000018001f244     libucrt:per_thread_data.obj
 0002:00009244       $unwind$__acrt_FlsFree     000000018001f244     libucrt:winapi_thunks.obj
 0002:00009244       $unwind$_close_nolock      000000018001f244     libucrt:close.obj
 0002:00009244       $unwind$?force_decimal_point@__crt_stdio_output@@YAXPEADQEAU__crt_locale_pointers@@@Z 000000018001f244     libucrt:output.obj
 0002:00009244       $unwind$??0_LocaleUpdate@@QEAA@QEAU__crt_locale_pointers@@@Z 000000018001f244     libucrt:output.obj
 0002:00009244       $unwind$__acrt_errno_map_os_error 000000018001f244     libucrt:errno.obj
 0002:00009244       $unwind$?internal_isupper_l@@YA_NHQEAU__crt_locale_pointers@@@Z 000000018001f244     libucrt:tolower_toupper.obj
 0002:00009244       $unwind$__vcrt_FlsFree     000000018001f244     libvcruntime:winapi_downlevel.obj
 0002:00009244       $unwind$__vcrt_FlsAlloc    000000018001f244     libvcruntime:winapi_downlevel.obj
 0002:00009244       $unwind$_fclose_nolock     000000018001f244     libucrt:fclose.obj
 0002:00009244       $unwind$__acrt_invoke_user_matherr 000000018001f244     libucrt:matherr.obj
 0002:00009244       $unwind$?DloadGetSRWLockFunctionPointers@@YAEXZ 000000018001f244     DelayImp:delayhlp.obj
 0002:00009244       $unwind$?DloadAcquireSectionWriteAccess@@YAXXZ 000000018001f244     DelayImp:delayhlp.obj
 0002:00009244       $unwind$?erase@?$basic_string@DU?$char_traits@D@std@@V?$allocator@D@2@@std@@QEAAAEAV12@_K0@Z 000000018001f244     rfcio.obj
 0002:00009244       $unwind$??_Glogic_error@std@@UEAAPEAXI@Z 000000018001f244     libcpmt:xthrow.obj
 0002:00009244       $unwind$_updatetlocinfoEx_nolock 000000018001f244     libucrt:locale_refcounting.obj
 0002:00009244       $unwind$?try_cor_exit_process@@YAXI@Z 000000018001f244     libucrt:exit.obj
 0002:00009244       $unwind$??_Gexception@std@@UEAAPEAXI@Z 000000018001f244     libcpmt:xthrow.obj
 0002:00009244       $unwind$??$common_initialize_environment_nolock@D@@YAHXZ 000000018001f244     libucrt:environment_initialization.obj
 0002:00009244       $unwind$_callnewh          000000018001f244     libucrt:new_handler.obj
 0002:00009244       $unwind$??_Gbad_alloc@std@@UEAAPEAXI@Z 000000018001f244     libcpmt:xthrow.obj
 0002:00009244       $unwind$__acrt_FlsGetValue 000000018001f244     libucrt:winapi_thunks.obj
 0002:00009244       $unwind$??_Gbad_array_new_length@std@@UEAAPEAXI@Z 000000018001f244     LIBCMT:throw_bad_alloc.obj
 0002:00009244       $unwind$?replace_current_thread_locale_nolock@@YAXQEAU__acrt_ptd@@QEAU__crt_locale_data@@@Z 000000018001f244     libucrt:per_thread_data.obj
 0002:00009244       $unwind$_realloc_base      000000018001f244     libucrt:realloc_base.obj
 0002:00009244       $unwind$__vcrt_EventUnregister 000000018001f244     libvcruntime:winapi_downlevel.obj
 0002:00009244       $unwind$??_Gout_of_range@std@@UEAAPEAXI@Z 000000018001f244     libcpmt:xthrow.obj
 0002:00009250       $unwind$?_Copy@?$basic_string@DU?$char_traits@D@std@@V?$allocator@D@2@@std@@QEAAX_K0@Z 000000018001f250     rfcio.obj
 0002:00009264       $unwind$?NODE_SET_PROTOTYPE_METHOD@node@@YAXV?$Local@VFunctionTemplate@v8@@@v8@@PEBDP6AXAEBV?$FunctionCallbackInfo@VValue@v8@@@3@@Z@Z 000000018001f264     Client.obj
 0002:00009274       $unwind$??$free_environment@D@@YAXQEAPEAD@Z 000000018001f274     libucrt:environment_initialization.obj
 0002:00009274       $unwind$?Wrap@ObjectWrap@node@@IEAAXV?$Local@VObject@v8@@@v8@@@Z 000000018001f274     Client.obj
 0002:00009274       $unwind$??$free_environment@_W@@YAXQEAPEA_W@Z 000000018001f274     libucrt:environment_initialization.obj
 0002:00009280       $unwind$?WeakCallback@ObjectWrap@node@@CAXAEBV?$WeakCallbackData@VObject@v8@@VObjectWrap@node@@@v8@@@Z 000000018001f280     Client.obj
 0002:00009280       $unwind$_isleadbyte_l      000000018001f280     libucrt:_wctype.obj
 0002:00009280       $unwind$?_TlgWrite@__vcrt_trace_logging_provider@@YAJPEBU_TlgProvider_t@1@PEFBXPEBU_GUID@@2IPEAU_EVENT_DATA_DESCRIPTOR@@@Z 000000018001f280     libvcruntime:telemetry.obj
 0002:00009280       $unwind$isdigit            000000018001f280     libucrt:_ctype.obj
 0002:00009280       $unwind$isspace            000000018001f280     libucrt:_ctype.obj
 0002:00009280       $unwind$?getSystemCP@@YAHH@Z 000000018001f280     libucrt:mbctype.obj
 0002:00009288       $unwind$??1Client@@EEAA@XZ 000000018001f288     Client.obj
 0002:0000929c       $chain$0$??1Client@@EEAA@XZ 000000018001f29c     Client.obj
 0002:000092b0       $chain$1$??1Client@@EEAA@XZ 000000018001f2b0     Client.obj
 0002:000092c4       $chain$2$??1Client@@EEAA@XZ 000000018001f2c4     Client.obj
 0002:000092d4       $chain$3$??1Client@@EEAA@XZ 000000018001f2d4     Client.obj
 0002:000092e4       $unwind$?Init@Client@@SAXV?$Local@VObject@v8@@@v8@@@Z 000000018001f2e4     Client.obj
 0002:000092f0       $unwind$?New@Client@@CAXAEBV?$FunctionCallbackInfo@VValue@v8@@@v8@@@Z 000000018001f2f0     Client.obj
 0002:000092f8       $chain$3$?New@Client@@CAXAEBV?$FunctionCallbackInfo@VValue@v8@@@v8@@@Z 000000018001f2f8     Client.obj
 0002:00009318       $chain$4$?New@Client@@CAXAEBV?$FunctionCallbackInfo@VValue@v8@@@v8@@@Z 000000018001f318     Client.obj
 0002:0000932c       $chain$5$?New@Client@@CAXAEBV?$FunctionCallbackInfo@VValue@v8@@@v8@@@Z 000000018001f32c     Client.obj
 0002:0000933c       $chain$6$?New@Client@@CAXAEBV?$FunctionCallbackInfo@VValue@v8@@@v8@@@Z 000000018001f33c     Client.obj
 0002:0000934c       $unwind$?ConnectAsyncAfter@Client@@CAXPEAUuv_work_s@@@Z 000000018001f34c     Client.obj
 0002:00009358       $unwind$?Connect@Client@@CAXAEBV?$FunctionCallbackInfo@VValue@v8@@@v8@@@Z 000000018001f358     Client.obj
 0002:00009368       $unwind$?Close@Client@@CAXAEBV?$FunctionCallbackInfo@VValue@v8@@@v8@@@Z 000000018001f368     Client.obj
 0002:00009380       $unwind$?IsAlive@Client@@CAXAEBV?$FunctionCallbackInfo@VValue@v8@@@v8@@@Z 000000018001f380     Client.obj
 0002:0000938c       $unwind$?InvokeAsyncAfter@Client@@CAXPEAUuv_work_s@@@Z 000000018001f38c     Client.obj
 0002:000093a0       $unwind$?Invoke@Client@@CAXAEBV?$FunctionCallbackInfo@VValue@v8@@@v8@@@Z 000000018001f3a0     Client.obj
 0002:000093b4       $chain$0$?Invoke@Client@@CAXAEBV?$FunctionCallbackInfo@VValue@v8@@@v8@@@Z 000000018001f3b4     Client.obj
 0002:000093c8       $chain$1$?Invoke@Client@@CAXAEBV?$FunctionCallbackInfo@VValue@v8@@@v8@@@Z 000000018001f3c8     Client.obj
 0002:000093d8       $unwind$?Ping@Client@@CAXAEBV?$FunctionCallbackInfo@VValue@v8@@@v8@@@Z 000000018001f3d8     Client.obj
 0002:000093f0       $unwind$?ConnectionInfo@Client@@CAXAEBV?$FunctionCallbackInfo@VValue@v8@@@v8@@@Z 000000018001f3f0     Client.obj
 0002:00009414       $unwind$?GetVersion@Client@@CAXAEBV?$FunctionCallbackInfo@VValue@v8@@@v8@@@Z 000000018001f414     Client.obj
 0002:00009420       xdata                      000000018001f420     node:node.exe
 0002:00009428       $unwind$?_Xout_of_range@std@@YAXPEBD@Z 000000018001f428     libcpmt:xthrow.obj
 0002:00009428       $unwind$?_Xbad_alloc@std@@YAXXZ 000000018001f428     libcpmt:xthrow.obj
 0002:00009428       $unwind$?__scrt_throw_std_bad_alloc@@YAXXZ 000000018001f428     LIBCMT:throw_bad_alloc.obj
 0002:00009428       $unwind$?_Xlength_error@std@@YAXPEBD@Z 000000018001f428     libcpmt:xthrow.obj
 0002:00009428       $unwind$?__scrt_throw_std_bad_array_new_length@@YAXXZ 000000018001f428     LIBCMT:throw_bad_alloc.obj
 0002:00009428       $unwind$_raise_exc         000000018001f428     libucrt:fpexcept.obj
 0002:00009428       $unwind$__dcrt_lowio_initialize_console_output 000000018001f428     libucrt:initcon.obj
 0002:00009430       $unwind$??0out_of_range@std@@QEAA@PEBD@Z 000000018001f430     libcpmt:xthrow.obj
 0002:00009430       $unwind$??0length_error@std@@QEAA@PEBD@Z 000000018001f430     libcpmt:xthrow.obj
 0002:00009430       $unwind$strtol             000000018001f430     libucrt:strtox.obj
 0002:00009438       $xdatasym                  000000018001f438     LIBCMT:_amdsecgs_.obj
 0002:0000943c       $unwind$__scrt_is_nonwritable_in_current_image 000000018001f43c     LIBCMT:utility.obj
 0002:0000945c       $unwind$__scrt_is_nonwritable_in_current_image$filt$0 000000018001f45c     LIBCMT:utility.obj
 0002:00009464       $unwind$__scrt_initialize_onexit_tables 000000018001f464     LIBCMT:utility.obj
 0002:00009470       $unwind$?dllmain_crt_process_attach@@YAHQEAUHINSTANCE__@@QEAX@Z 000000018001f470     LIBCMT:dll_dllmain.obj
 0002:0000949c       $unwind$?dllmain_crt_process_detach@@YAH_N@Z 000000018001f49c     LIBCMT:dll_dllmain.obj
 0002:000094c4       $unwind$?dllmain_dispatch@@YAHQEAUHINSTANCE__@@KQEAX@Z 000000018001f4c4     LIBCMT:dll_dllmain.obj
 0002:000094ec       $unwind$?filt$0@?0??dllmain_dispatch@@YAHQEAUHINSTANCE__@@KQEAX@Z@4HA 000000018001f4ec     LIBCMT:dll_dllmain.obj
 0002:000094f4       $unwind$__report_gsfailure 000000018001f4f4     LIBCMT:gs_report.obj
 0002:000094f4       $unwind$_putwch_nolock     000000018001f4f4     libucrt:putwch.obj
 0002:000094fc       $unwind$capture_previous_context 000000018001f4fc     LIBCMT:gs_report.obj
 0002:00009508       $unwind$__scrt_fastfail    000000018001f508     LIBCMT:utility_desktop.obj
 0002:00009518       $unwind$__isa_available_init 000000018001f518     LIBCMT:_cpu_disp_.obj
 0002:00009524       $unwind$__security_init_cookie 000000018001f524     LIBCMT:gs_support.obj
 0002:00009530       $xdatasym                  000000018001f530     LIBCMT:_guard_dispatch_.obj
 0002:00009538       $xdatasym                  000000018001f538     libvcruntime:memcpy.obj
 0002:0000953c       $unwind$_free_osfhnd       000000018001f53c     libucrt:osfinfo.obj
 0002:0000953c       $unwind$?initialize_stdio_handles_nolock@@YAXXZ 000000018001f53c     libucrt:ioinit.obj
 0002:0000953c       $unwind$__std_exception_copy 000000018001f53c     libvcruntime:std_exception.obj
 0002:00009550       $unwind$_CxxThrowException 000000018001f550     libvcruntime:throw.obj
 0002:00009564       $unwind$_invalid_parameter 000000018001f564     libucrt:invalid_parameter.obj
 0002:00009564       $unwind$__vcrt_EventWriteTransfer 000000018001f564     libvcruntime:winapi_downlevel.obj
 0002:0000957c       $unwind$__vcrt_uninitialize_winapi_thunks 000000018001f57c     libvcruntime:winapi_downlevel.obj
 0002:00009584       $unwind$?try_get_function@@YAPEAXW4function_id@?A0x61ce2399@@QEBDQEBW4module_id@2@2@Z 000000018001f584     libvcruntime:winapi_downlevel.obj
 0002:00009584       $unwind$?try_get_function@@YAPEAXW4function_id@?A0x63058377@@QEBDQEBW4module_id@2@2@Z 000000018001f584     libucrt:winapi_thunks.obj
 0002:000095a0       $unwind$__C_specific_handler 000000018001f5a0     libvcruntime:_chandler_.obj
 0002:000095bc       $unwind$__telemetry_main_invoke_trigger 000000018001f5bc     libvcruntime:telemetry.obj
 0002:000095bc       $unwind$__telemetry_main_return_trigger 000000018001f5bc     libvcruntime:telemetry.obj
 0002:000095d4       $unwind$?_TlgEnableCallback@__vcrt_trace_logging_provider@@YAXPEBU_GUID@@KE_K1PEAU_EVENT_FILTER_DESCRIPTOR@@PEAX@Z 000000018001f5d4     libvcruntime:telemetry.obj
 0002:000095f0       $xdatasym                  000000018001f5f0     libvcruntime:memset.obj
 0002:000095f8       $xdatasym                  000000018001f5f8     libvcruntime:_jmpuwind_.obj
 0002:0000960c       $unwind$__stdio_common_vsprintf 000000018001f60c     libucrt:output.obj
 0002:00009630       $unwind$?process@?$output_processor@DV?$string_output_adapter@D@__crt_stdio_output@@V?$standard_base@DV?$string_output_adapter@D@__crt_stdio_output@@@2@@__crt_stdio_output@@QEAAHXZ 000000018001f630     libucrt:output.obj
 0002:00009640       $unwind$?parse_int_from_format_string@?$output_processor@DV?$string_output_adapter@D@__crt_stdio_output@@V?$standard_base@DV?$string_output_adapter@D@__crt_stdio_output@@@2@@__crt_stdio_output@@AEAA_NQEAH@Z 000000018001f640     libucrt:output.obj
 0002:00009654       $unwind$?state_case_type@?$output_processor@DV?$string_output_adapter@D@__crt_stdio_output@@V?$standard_base@DV?$string_output_adapter@D@__crt_stdio_output@@@2@@__crt_stdio_output@@AEAA_NXZ 000000018001f654     libucrt:output.obj
 0002:0000966c       $unwind$?type_case_a@?$output_processor@DV?$string_output_adapter@D@__crt_stdio_output@@V?$standard_base@DV?$string_output_adapter@D@__crt_stdio_output@@@2@@__crt_stdio_output@@AEAA_NXZ 000000018001f66c     libucrt:output.obj
 0002:00009678       $unwind$?write_stored_string_tchar@?$output_processor@DV?$string_output_adapter@D@__crt_stdio_output@@V?$standard_base@DV?$string_output_adapter@D@__crt_stdio_output@@@2@@__crt_stdio_output@@AEAA_ND@Z 000000018001f678     libucrt:output.obj
 0002:00009690       $unwind$??$write_multiple_characters@V?$string_output_adapter@D@__crt_stdio_output@@D@__crt_stdio_output@@YAXAEBV?$string_output_adapter@D@0@DHQEAH@Z 000000018001f690     libucrt:output.obj
 0002:00009690       $unwind$??$type_case_integer_parse_into_buffer@_K@?$output_processor@DV?$string_output_adapter@D@__crt_stdio_output@@V?$standard_base@DV?$string_output_adapter@D@__crt_stdio_output@@@2@@__crt_stdio_output@@AEAAX_KI_N@Z 000000018001f690     libucrt:output.obj
 0002:00009690       $unwind$??$type_case_integer_parse_into_buffer@I@?$output_processor@DV?$string_output_adapter@D@__crt_stdio_output@@V?$standard_base@DV?$string_output_adapter@D@__crt_stdio_output@@@2@@__crt_stdio_output@@AEAAXII_N@Z 000000018001f690     libucrt:output.obj
 0002:00009698       $unwind$__acrt_call_reportfault 000000018001f698     libucrt:invalid_parameter.obj
 0002:000096b8       $unwind$_stricmp_l         000000018001f6b8     libucrt:stricmp.obj
 0002:000096c8       $unwind$_query_new_handler 000000018001f6c8     libucrt:new_handler.obj
 0002:000096e8       $unwind$?common_exit@@YAXHW4_crt_exit_cleanup_mode@@W4_crt_exit_return_mode@@@Z 000000018001f6e8     libucrt:exit.obj
 0002:00009728       $unwind$??$create_environment@D@@YAQEAPEADQEAD@Z 000000018001f728     libucrt:environment_initialization.obj
 0002:00009740       $unwind$_register_onexit_function 000000018001f740     libucrt:onexit.obj
 0002:00009748       $unwind$_execute_onexit_table 000000018001f748     libucrt:onexit.obj
 0002:00009750       $unwind$??R<lambda_4e60a939b0d047cfe11ddc22648dfba9>@@QEBAHXZ 000000018001f750     libucrt:onexit.obj
 0002:00009750       $unwind$?write_string@?$string_output_adapter@D@__crt_stdio_output@@QEBAXQEBDHQEAH1@Z 000000018001f750     libucrt:output.obj
 0002:0000976c       $unwind$??$?RV<lambda_b8c45f8f788dd370798f47cfe8ac3a86>@@AEAV<lambda_4e60a939b0d047cfe11ddc22648dfba9>@@V<lambda_332c3edc96d0294ec56c57d38c1cdfd5>@@@?$__crt_seh_guarded_call@H@@QEAAH$$QEAV<lambda_b8c45f8f788dd370798f47cfe8ac3a86>@@AEAV<lambda_4e60a939b0d047cfe11ddc22648dfba9>@@$$QEAV<lambda_332c3edc96d0294ec56c57d38c1cdfd5>@@@Z 000000018001f76c     libucrt:onexit.obj
 0002:00009790       $unwind$??$?RV<lambda_e24bbb7b643b32fcea6fa61b31d4c984>@@AEAV<lambda_275893d493268fdec8709772e3fcec0e>@@V<lambda_9d71df4d7cf3f480f8d633942495c3b0>@@@?$__crt_seh_guarded_call@H@@QEAAH$$QEAV<lambda_e24bbb7b643b32fcea6fa61b31d4c984>@@AEAV<lambda_275893d493268fdec8709772e3fcec0e>@@$$QEAV<lambda_9d71df4d7cf3f480f8d633942495c3b0>@@@Z 000000018001f790     libucrt:onexit.obj
 0002:000097c0       $unwind$__acrt_initialize_stdio 000000018001f7c0     libucrt:_file.obj
 0002:000097c0       $unwind$__vcrt_EventSetInformation 000000018001f7c0     libvcruntime:winapi_downlevel.obj
 0002:000097c0       $unwind$_initterm          000000018001f7c0     libucrt:initterm.obj
 0002:000097c0       $unwind$__vcrt_EventRegister 000000018001f7c0     libvcruntime:winapi_downlevel.obj
 0002:000097d8       $unwind$terminate          000000018001f7d8     libucrt:terminate.obj
 0002:000097f8       $unwind$??$parse_integer@KV?$c_string_character_source@D@__crt_strtox@@@__crt_strtox@@YAKQEAU__crt_locale_pointers@@V?$c_string_character_source@D@0@H_N@Z 000000018001f7f8     libucrt:atox.obj
 0002:00009814       $unwind$_tolower_l         000000018001f814     libucrt:tolower_toupper.obj
 0002:00009824       $unwind$__acrt_LCMapStringEx 000000018001f824     libucrt:winapi_thunks.obj
 0002:00009824       $unwind$_mbtowc_l          000000018001f824     libucrt:mbtowc.obj
 0002:0000983c       $unwind$_wctomb_s_l        000000018001f83c     libucrt:wctomb.obj
 0002:0000984c       $unwind$wcsnlen            000000018001f84c     libucrt:strnlen.obj
 0002:0000984c       $unwind$strnlen            000000018001f84c     libucrt:strnlen.obj
 0002:00009854       $unwind$_free_base         000000018001f854     libucrt:free_base.obj
 0002:00009854       $unwind$?destroy_fls@@YAXPEAX@Z 000000018001f854     libucrt:per_thread_data.obj
 0002:00009854       $unwind$__acrt_locale_free_lc_time_if_unreferenced 000000018001f854     libucrt:locale_refcounting.obj
 0002:00009854       $unwind$__acrt_locale_free_numeric 000000018001f854     libucrt:initnum.obj
 0002:0000985c       $unwind$?construct_ptd_array@@YAXQEAU__acrt_ptd@@@Z 000000018001f85c     libucrt:per_thread_data.obj
 0002:00009864       $unwind$?destroy_ptd_array@@YAXQEAU__acrt_ptd@@@Z 000000018001f864     libucrt:per_thread_data.obj
 0002:0000986c       $unwind$??$?RV<lambda_72d1df2b273a38828b1ce30cbf4cdab5>@@AEAV<lambda_876a65b173b8412d3a47c70a915b0cf4>@@V<lambda_41932305e351933ebe8f8be3ed8bb5dc>@@@?$__crt_seh_guarded_call@X@@QEAAX$$QEAV<lambda_72d1df2b273a38828b1ce30cbf4cdab5>@@AEAV<lambda_876a65b173b8412d3a47c70a915b0cf4>@@$$QEAV<lambda_41932305e351933ebe8f8be3ed8bb5dc>@@@Z 000000018001f86c     libucrt:per_thread_data.obj
 0002:00009890       $unwind$??$?RV<lambda_5e887d1dcbef67a5eb4283622ba103bf>@@AEAV<lambda_4466841279450cc726390878d4a41900>@@V<lambda_341c25c0346d94847f1f3c463c57e077>@@@?$__crt_seh_guarded_call@X@@QEAAX$$QEAV<lambda_5e887d1dcbef67a5eb4283622ba103bf>@@AEAV<lambda_4466841279450cc726390878d4a41900>@@$$QEAV<lambda_341c25c0346d94847f1f3c463c57e077>@@@Z 000000018001f890     libucrt:per_thread_data.obj
 0002:000098b4       $unwind$??$?RV<lambda_46352004c1216016012b18bd6f87e700>@@AEAV<lambda_3bd07e1a1191394380780325891bf33f>@@V<lambda_334532d3f185bcaa59b5be82d7d22bff>@@@?$__crt_seh_guarded_call@X@@QEAAX$$QEAV<lambda_46352004c1216016012b18bd6f87e700>@@AEAV<lambda_3bd07e1a1191394380780325891bf33f>@@$$QEAV<lambda_334532d3f185bcaa59b5be82d7d22bff>@@@Z 000000018001f8b4     libucrt:per_thread_data.obj
 0002:000098d8       $unwind$??$?RV<lambda_fb3a7dec4e47f37f22dae91bb15c9095>@@AEAV<lambda_698284760c8add0bfb0756c19673e34b>@@V<lambda_dfb8eca1e75fef3034a8fb18dd509707>@@@?$__crt_seh_guarded_call@X@@QEAAX$$QEAV<lambda_fb3a7dec4e47f37f22dae91bb15c9095>@@AEAV<lambda_698284760c8add0bfb0756c19673e34b>@@$$QEAV<lambda_dfb8eca1e75fef3034a8fb18dd509707>@@@Z 000000018001f8d8     libucrt:per_thread_data.obj
 0002:000098fc       $unwind$__acrt_fp_format   000000018001f8fc     libucrt:cvt.obj
 0002:00009918       $unwind$?fp_format_nan_or_infinity@@YAHW4__acrt_fp_class@@_NPEAD_K1@Z 000000018001f918     libucrt:cvt.obj
 0002:0000992c       $unwind$?fp_format_e_internal@@YAHQEAD_KH_NIQEAU_strflt@@2QEAU__crt_locale_pointers@@@Z 000000018001f92c     libucrt:cvt.obj
 0002:00009944       $unwind$?fp_format_e@@YAHQEBNQEAD_K12H_NIQEAU__crt_locale_pointers@@@Z 000000018001f944     libucrt:cvt.obj
 0002:00009958       $unwind$?fp_format_a@@YAHQEBNPEAD_KQEAD2H_NIQEAU__crt_locale_pointers@@@Z 000000018001f958     libucrt:cvt.obj
 0002:00009974       $unwind$?fp_format_g@@YAHQEBNQEAD_K12H_NIQEAU__crt_locale_pointers@@@Z 000000018001f974     libucrt:cvt.obj
 0002:00009988       $unwind$__acrt_uninitialize_locale 000000018001f988     libucrt:wsetlocale.obj
 0002:000099a8       $unwind$__acrt_initialize_lowio 000000018001f9a8     libucrt:ioinit.obj
 0002:000099c8       $unwind$?initialize_inherited_file_handles_nolock@@YAXXZ 000000018001f9c8     libucrt:ioinit.obj
 0002:000099e4       $unwind$_isctype_l         000000018001f9e4     libucrt:isctype.obj
 0002:00009a00       $unwind$__acrt_initialize_winapi_thunks 000000018001fa00     libucrt:winapi_thunks.obj
 0002:00009a00       $unwind$__vcrt_initialize_winapi_thunks 000000018001fa00     libvcruntime:winapi_downlevel.obj
 0002:00009a08       $unwind$__acrt_is_packaged_app 000000018001fa08     libucrt:winapi_thunks.obj
 0002:00009a14       $unwind$__acrt_update_thread_multibyte_data 000000018001fa14     libucrt:mbctype.obj
 0002:00009a38       $unwind$_setmbcp_nolock    000000018001fa38     libucrt:mbctype.obj
 0002:00009a58       $unwind$?setSBUpLow@@YAXPEAU__crt_multibyte_data@@@Z 000000018001fa58     libucrt:mbctype.obj
 0002:00009a74       $unwind$?setmbcp_internal@@YAHH_N@Z 000000018001fa74     libucrt:mbctype.obj
 0002:00009a84       $unwind$??$?RV<lambda_99476a1ad63dd22509b5d3e65b0ffc95>@@AEAV<lambda_ad1ced32f4ac17aa236e5ef05d6b3b7c>@@V<lambda_f7424dd8d45958661754dc4f2697e9c3>@@@?$__crt_seh_guarded_call@X@@QEAAX$$QEAV<lambda_99476a1ad63dd22509b5d3e65b0ffc95>@@AEAV<lambda_ad1ced32f4ac17aa236e5ef05d6b3b7c>@@$$QEAV<lambda_f7424dd8d45958661754dc4f2697e9c3>@@@Z 000000018001fa84     libucrt:mbctype.obj
 0002:00009aa8       $unwind$__dcrt_get_narrow_environment_from_os 000000018001faa8     libucrt:get_environment_from_os.obj
 0002:00009aa8       $unwind$?fp_format_f_internal@@YAHQEAD_KHQEAU_strflt@@_NQEAU__crt_locale_pointers@@@Z 000000018001faa8     libucrt:cvt.obj
 0002:00009ac0       $unwind$__acrt_get_sigabrt_handler 000000018001fac0     libucrt:signal.obj
 0002:00009ac8       $unwind$raise              000000018001fac8     libucrt:signal.obj
 0002:00009af4       $unwind$??$?RV<lambda_c36588078e9f5dfd39652860aa6b3aaf>@@AEAV<lambda_ec61778202f4f5fc7e7711acc23c3bca>@@V<lambda_dc9d2797ccde5d239b4a0efae8ebd7db>@@@?$__crt_seh_guarded_call@P6AXH@Z@@QEAAP6AXH@Z$$QEAV<lambda_c36588078e9f5dfd39652860aa6b3aaf>@@AEAV<lambda_ec61778202f4f5fc7e7711acc23c3bca>@@$$QEAV<lambda_dc9d2797ccde5d239b4a0efae8ebd7db>@@@Z 000000018001faf4     libucrt:signal.obj
 0002:00009b18       $unwind$__acrt_LCMapStringA 000000018001fb18     libucrt:lcmapstringa.obj
 0002:00009b28       $unwind$?__acrt_LCMapStringA_stat@@YAHPEAU__crt_locale_pointers@@PEB_WKPEBDHPEADHHH@Z 000000018001fb28     libucrt:lcmapstringa.obj
 0002:00009b50       $unwind$__acrt_update_thread_locale_data 000000018001fb50     libucrt:locale_refcounting.obj
 0002:00009b74       $unwind$__acrt_fltout      000000018001fb74     libucrt:cfout.obj
 0002:00009b94       $unwind$?divide@__crt_strtox@@YA_KAEAUbig_integer@1@AEBU21@@Z 000000018001fb94     libucrt:cfout.obj
 0002:00009bb4       $chain$5$?divide@__crt_strtox@@YA_KAEAUbig_integer@1@AEBU21@@Z 000000018001fbb4     libucrt:cfout.obj
 0002:00009bc8       $chain$6$?divide@__crt_strtox@@YA_KAEAUbig_integer@1@AEBU21@@Z 000000018001fbc8     libucrt:cfout.obj
 0002:00009bd8       $unwind$_fcloseall         000000018001fbd8     libucrt:closeall.obj
 0002:00009bfc       $unwind$common_flush_all   000000018001fbfc     libucrt:fflush.obj
 0002:00009c38       $unwind$__acrt_locale_free_monetary 000000018001fc38     libucrt:initmon.obj
 0002:00009c40       $unwind$__acrt_locale_free_time 000000018001fc40     libucrt:inittime.obj
 0002:00009c50       $unwind$__acrt_GetStringTypeA 000000018001fc50     libucrt:getstringtypea.obj
 0002:00009c78       $unwind$__acrt_lowio_destroy_handle_array 000000018001fc78     libucrt:osfinfo.obj
 0002:00009c88       $unwind$__acrt_lowio_ensure_fh_exists 000000018001fc88     libucrt:osfinfo.obj
 0002:00009cb4       $unwind$?GetTableIndexFromLocaleName@@YAHPEB_W@Z 000000018001fcb4     libucrt:lcidtoname_downlevel.obj
 0002:00009cd0       $xdatasym                  000000018001fcd0     libucrt:log10.obj
 0002:00009cdc       $unwind$_write             000000018001fcdc     libucrt:write.obj
 0002:00009d0c       $unwind$_write_nolock      000000018001fd0c     libucrt:write.obj
 0002:00009d24       $unwind$?write_double_translated_ansi_nolock@@YA?AUwrite_result@?A0x9c548279@@HQEBDI@Z 000000018001fd24     libucrt:write.obj
 0002:00009d44       $unwind$?write_text_ansi_nolock@@YA?AUwrite_result@?A0x9c548279@@HQEBDI@Z 000000018001fd44     libucrt:write.obj
 0002:00009d44       $unwind$?write_text_utf16le_nolock@@YA?AUwrite_result@?A0x9c548279@@HQEBDI@Z 000000018001fd44     libucrt:write.obj
 0002:00009d64       $unwind$?write_text_utf8_nolock@@YA?AUwrite_result@?A0x9c548279@@HQEBDI@Z 000000018001fd64     libucrt:write.obj
 0002:00009d88       $unwind$fclose             000000018001fd88     libucrt:fclose.obj
 0002:00009dac       $unwind$_commit            000000018001fdac     libucrt:commit.obj
 0002:00009dac       $unwind$_close             000000018001fdac     libucrt:close.obj
 0002:00009db4       $unwind$??$?RV<lambda_b521505b218e5242e90febf6bfebc422>@@AEAV<lambda_6978c1fb23f02e42e1d9e99668cc68aa>@@V<lambda_314360699dd331753a4119843814e9a7>@@@?$__crt_seh_guarded_call@H@@QEAAH$$QEAV<lambda_b521505b218e5242e90febf6bfebc422>@@AEAV<lambda_6978c1fb23f02e42e1d9e99668cc68aa>@@$$QEAV<lambda_314360699dd331753a4119843814e9a7>@@@Z 000000018001fdb4     libucrt:commit.obj
 0002:00009dd8       $unwind$common_control87   000000018001fdd8     libucrt:ieee.obj
 0002:00009e08       $unwind$_call_matherr      000000018001fe08     libucrt:libm_error.obj
 0002:00009e10       $unwind$_handle_error      000000018001fe10     libucrt:libm_error.obj
 0002:00009e30       $unwind$__acrt_initialize_fma3 000000018001fe30     libucrt:fma3_available.obj
 0002:00009e38       $unwind$_log_special_common 000000018001fe38     libucrt:log_special.obj
 0002:00009e44       $unwind$_log10_special     000000018001fe44     libucrt:log_special.obj
 0002:00009e44       $unwind$_invalid_parameter_noinfo_noreturn 000000018001fe44     libucrt:invalid_parameter.obj
 0002:00009e44       $unwind$_invalid_parameter_noinfo 000000018001fe44     libucrt:invalid_parameter.obj
 0002:00009e44       $unwind$wctomb_s           000000018001fe44     libucrt:wctomb.obj
 0002:00009e4c       $unwind$??$?RV<lambda_bfedae4ebbf01fab1bb6dcc6a9e276e0>@@AEAV<lambda_2fe9b910cf3cbf4a0ab98a02ba45b3ec>@@V<lambda_237c231691f317818eb88cc1d5d642d6>@@@?$__crt_seh_guarded_call@H@@QEAAH$$QEAV<lambda_bfedae4ebbf01fab1bb6dcc6a9e276e0>@@AEAV<lambda_2fe9b910cf3cbf4a0ab98a02ba45b3ec>@@$$QEAV<lambda_237c231691f317818eb88cc1d5d642d6>@@@Z 000000018001fe4c     libucrt:close.obj
 0002:00009e70       $xdatasym                  000000018001fe70     libucrt:fpsr.obj
 0002:00009e78       $unwind$_raise_exc_ex      000000018001fe78     libucrt:fpexcept.obj
 0002:00009e8c       $unwind$_ctrlfp            000000018001fe8c     libucrt:fpctrl.obj
 0002:00009eb4       $unwind$?DloadObtainSection@@YAPEAXPEAK0@Z 000000018001feb4     DelayImp:delayhlp.obj
 0002:00009ec4       $unwind$?DloadMakePermanentImageCommit@@YAXPEAX_K@Z 000000018001fec4     DelayImp:delayhlp.obj
 0002:00009ed0       $unwind$?DloadProtectSection@@YAXKPEAK@Z 000000018001fed0     DelayImp:delayhlp.obj
 0002:00009ee0       $unwind$__delayLoadHelper2 000000018001fee0     DelayImp:delayhlp.obj
 0002:00009ef8       $unwind$_IsNonwritableInCurrentImage 000000018001fef8     LIBCMT:pesect.obj
 0002:00009f1c       $unwind$?fin$0@?0???$?RV<lambda_b8c45f8f788dd370798f47cfe8ac3a86>@@AEAV<lambda_4e60a939b0d047cfe11ddc22648dfba9>@@V<lambda_332c3edc96d0294ec56c57d38c1cdfd5>@@@?$__crt_seh_guarded_call@H@@QEAAH$$QEAV<lambda_b8c45f8f788dd370798f47cfe8ac3a86>@@AEAV<lambda_4e60a939b0d047cfe11ddc22648dfba9>@@$$QEAV<lambda_332c3edc96d0294ec56c57d38c1cdfd5>@@@Z@4HA 000000018001ff1c     libucrt:onexit.obj
 0002:00009f1c       $unwind$_query_new_handler$fin$0 000000018001ff1c     libucrt:new_handler.obj
 0002:00009f1c       $unwind$?fin$1@?0??common_exit@@YAXHW4_crt_exit_cleanup_mode@@W4_crt_exit_return_mode@@@Z@4HA 000000018001ff1c     libucrt:exit.obj
 0002:00009f1c       $unwind$common_flush_all$fin$0 000000018001ff1c     libucrt:fflush.obj
 0002:00009f1c       $unwind$?fin$0@?0???$?RV<lambda_fb3a7dec4e47f37f22dae91bb15c9095>@@AEAV<lambda_698284760c8add0bfb0756c19673e34b>@@V<lambda_dfb8eca1e75fef3034a8fb18dd509707>@@@?$__crt_seh_guarded_call@X@@QEAAX$$QEAV<lambda_fb3a7dec4e47f37f22dae91bb15c9095>@@AEAV<lambda_698284760c8add0bfb0756c19673e34b>@@$$QEAV<lambda_dfb8eca1e75fef3034a8fb18dd509707>@@@Z@4HA 000000018001ff1c     libucrt:per_thread_data.obj
 0002:00009f1c       $unwind$__acrt_initialize_lowio$fin$0 000000018001ff1c     libucrt:ioinit.obj
 0002:00009f1c       $unwind$_IsNonwritableInCurrentImage$filt$0 000000018001ff1c     LIBCMT:pesect.obj
 0002:00009f1c       $unwind$__acrt_update_thread_locale_data$fin$0 000000018001ff1c     libucrt:locale_refcounting.obj
 0002:00009f1c       $unwind$?fin$0@?0???$?RV<lambda_5e887d1dcbef67a5eb4283622ba103bf>@@AEAV<lambda_4466841279450cc726390878d4a41900>@@V<lambda_341c25c0346d94847f1f3c463c57e077>@@@?$__crt_seh_guarded_call@X@@QEAAX$$QEAV<lambda_5e887d1dcbef67a5eb4283622ba103bf>@@AEAV<lambda_4466841279450cc726390878d4a41900>@@$$QEAV<lambda_341c25c0346d94847f1f3c463c57e077>@@@Z@4HA 000000018001ff1c     libucrt:per_thread_data.obj
 0002:00009f1c       $unwind$__acrt_update_thread_multibyte_data$fin$0 000000018001ff1c     libucrt:mbctype.obj
 0002:00009f1c       $unwind$common_control87$filt$0 000000018001ff1c     libucrt:ieee.obj
 0002:00009f1c       $unwind$?fin$0@?0???$?RV<lambda_c36588078e9f5dfd39652860aa6b3aaf>@@AEAV<lambda_ec61778202f4f5fc7e7711acc23c3bca>@@V<lambda_dc9d2797ccde5d239b4a0efae8ebd7db>@@@?$__crt_seh_guarded_call@P6AXH@Z@@QEAAP6AXH@Z$$QEAV<lambda_c36588078e9f5dfd39652860aa6b3aaf>@@AEAV<lambda_ec61778202f4f5fc7e7711acc23c3bca>@@$$QEAV<lambda_dc9d2797ccde5d239b4a0efae8ebd7db>@@@Z@4HA 000000018001ff1c     libucrt:signal.obj
 0002:00009f1c       $unwind$?fin$0@?0???$?RV<lambda_e24bbb7b643b32fcea6fa61b31d4c984>@@AEAV<lambda_275893d493268fdec8709772e3fcec0e>@@V<lambda_9d71df4d7cf3f480f8d633942495c3b0>@@@?$__crt_seh_guarded_call@H@@QEAAH$$QEAV<lambda_e24bbb7b643b32fcea6fa61b31d4c984>@@AEAV<lambda_275893d493268fdec8709772e3fcec0e>@@$$QEAV<lambda_9d71df4d7cf3f480f8d633942495c3b0>@@@Z@4HA 000000018001ff1c     libucrt:onexit.obj
 0002:00009f1c       $unwind$?fin$0@?0??dllmain_crt_process_detach@@YAH_N@Z@4HA 000000018001ff1c     LIBCMT:dll_dllmain.obj
 0002:00009f1c       $unwind$?fin$0@?0??dllmain_crt_process_attach@@YAHQEAUHINSTANCE__@@QEAX@Z@4HA 000000018001ff1c     LIBCMT:dll_dllmain.obj
 0002:00009f1c       $unwind$raise$fin$0        000000018001ff1c     libucrt:signal.obj
 0002:00009f1c       $unwind$?fin$0@?0???$?RV<lambda_46352004c1216016012b18bd6f87e700>@@AEAV<lambda_3bd07e1a1191394380780325891bf33f>@@V<lambda_334532d3f185bcaa59b5be82d7d22bff>@@@?$__crt_seh_guarded_call@X@@QEAAX$$QEAV<lambda_46352004c1216016012b18bd6f87e700>@@AEAV<lambda_3bd07e1a1191394380780325891bf33f>@@$$QEAV<lambda_334532d3f185bcaa59b5be82d7d22bff>@@@Z@4HA 000000018001ff1c     libucrt:per_thread_data.obj
 0002:00009f1c       $unwind$_fcloseall$fin$0   000000018001ff1c     libucrt:closeall.obj
 0002:00009f1c       $unwind$_ctrlfp$filt$0     000000018001ff1c     libucrt:fpctrl.obj
 0002:00009f1c       $unwind$?fin$0@?0???$?RV<lambda_bfedae4ebbf01fab1bb6dcc6a9e276e0>@@AEAV<lambda_2fe9b910cf3cbf4a0ab98a02ba45b3ec>@@V<lambda_237c231691f317818eb88cc1d5d642d6>@@@?$__crt_seh_guarded_call@H@@QEAAH$$QEAV<lambda_bfedae4ebbf01fab1bb6dcc6a9e276e0>@@AEAV<lambda_2fe9b910cf3cbf4a0ab98a02ba45b3ec>@@$$QEAV<lambda_237c231691f317818eb88cc1d5d642d6>@@@Z@4HA 000000018001ff1c     libucrt:close.obj
 0002:00009f1c       $unwind$__acrt_lowio_ensure_fh_exists$fin$0 000000018001ff1c     libucrt:osfinfo.obj
 0002:00009f1c       $unwind$?filt$0@?0??common_exit@@YAXHW4_crt_exit_cleanup_mode@@W4_crt_exit_return_mode@@@Z@4HA 000000018001ff1c     libucrt:exit.obj
 0002:00009f1c       $unwind$common_flush_all$fin$1 000000018001ff1c     libucrt:fflush.obj
 0002:00009f1c       $unwind$?fin$0@?0???$?RV<lambda_b521505b218e5242e90febf6bfebc422>@@AEAV<lambda_6978c1fb23f02e42e1d9e99668cc68aa>@@V<lambda_314360699dd331753a4119843814e9a7>@@@?$__crt_seh_guarded_call@H@@QEAAH$$QEAV<lambda_b521505b218e5242e90febf6bfebc422>@@AEAV<lambda_6978c1fb23f02e42e1d9e99668cc68aa>@@$$QEAV<lambda_314360699dd331753a4119843814e9a7>@@@Z@4HA 000000018001ff1c     libucrt:commit.obj
 0002:00009f1c       $unwind$?fin$0@?0???$?RV<lambda_99476a1ad63dd22509b5d3e65b0ffc95>@@AEAV<lambda_ad1ced32f4ac17aa236e5ef05d6b3b7c>@@V<lambda_f7424dd8d45958661754dc4f2697e9c3>@@@?$__crt_seh_guarded_call@X@@QEAAX$$QEAV<lambda_99476a1ad63dd22509b5d3e65b0ffc95>@@AEAV<lambda_ad1ced32f4ac17aa236e5ef05d6b3b7c>@@$$QEAV<lambda_f7424dd8d45958661754dc4f2697e9c3>@@@Z@4HA 000000018001ff1c     libucrt:mbctype.obj
 0002:00009f1c       $unwind$?fin$0@?0???$?RV<lambda_72d1df2b273a38828b1ce30cbf4cdab5>@@AEAV<lambda_876a65b173b8412d3a47c70a915b0cf4>@@V<lambda_41932305e351933ebe8f8be3ed8bb5dc>@@@?$__crt_seh_guarded_call@X@@QEAAX$$QEAV<lambda_72d1df2b273a38828b1ce30cbf4cdab5>@@AEAV<lambda_876a65b173b8412d3a47c70a915b0cf4>@@$$QEAV<lambda_41932305e351933ebe8f8be3ed8bb5dc>@@@Z@4HA 000000018001ff1c     libucrt:per_thread_data.obj
 0002:00009f1c       $unwind$__acrt_uninitialize_locale$fin$0 000000018001ff1c     libucrt:wsetlocale.obj
 0002:00009f1c       $unwind$fclose$fin$0       000000018001ff1c     libucrt:fclose.obj
 0002:00009f1c       $unwind$_write$fin$0       000000018001ff1c     libucrt:write.obj
 0002:00009f24       $unwind$__GSHandlerCheckCommon 000000018001ff24     LIBCMT:_gshandler_.obj
 0002:00009f30       $xdatasym                  000000018001ff30     LIBCMT:_chkstk_.obj
 0002:00009f38       $unwind$strrchr            000000018001ff38     libvcruntime:strrchr.obj
 0002:00009f40       $xdatasym                  000000018001ff40     libvcruntime:memcmp.obj
 0002:0000b2a0       .edata                     00000001800212a0     rfc-v4.2.4.exp
 0002:0000b2c8       rgpv                       00000001800212c8     rfc-v4.2.4.exp
 0002:0000b2cc       rgszName                   00000001800212cc     rfc-v4.2.4.exp
 0002:0000b2d0       rgwOrd                     00000001800212d0     rfc-v4.2.4.exp
 0002:0000b2d2       szName                     00000001800212d2     rfc-v4.2.4.exp
 0002:0000b2e2       $N00001                    00000001800212e2     rfc-v4.2.4.exp
 0002:0000ba30       .idata$6                   0000000180021a30     sapnwrfc:sapnwrfc.dll
 0002:0000ba52       .idata$6                   0000000180021a52     kernel32:KERNEL32.dll
 0002:0000bf5a       .idata$6                   0000000180021f5a     advapi32:ADVAPI32.dll
 0003:00000030       ?_Tlg_Microsoft_CRTProviderProv@@3U_TlgProvider_t@__vcrt_trace_logging_provider@@A 0000000180022030     libvcruntime:telemetry.obj
 0003:00000080       ?__vcrt_flsindex@@3KA      0000000180022080     libvcruntime:per_thread_data.obj
 0003:00000094       errno_no_memory            0000000180022094     libucrt:errno.obj
 0003:00000098       doserrno_no_memory         0000000180022098     libucrt:errno.obj
 0003:0000009c       __acrt_flsindex            000000018002209c     libucrt:per_thread_data.obj
 0003:00000550       __rgctypeflag              0000000180022550     libucrt:mbctype.obj
 0003:00000560       __rgcode_page_info         0000000180022560     libucrt:mbctype.obj
 0003:00000910       ?dazSupported@?1??common_control87@@9@9 0000000180022910     libucrt:ieee.obj
 0003:00000920       ?dazSupported@?1??_ctrlfp@@9@9 0000000180022920     libucrt:fpctrl.obj
 0003:00000940       _module                    0000000180022940     rfc.obj
 0003:00000c98       ?_Tss_mutex@@3U_RTL_CRITICAL_SECTION@@A 0000000180022c98     LIBCMT:thread_safe_statics.obj
 0003:00000cc0       ?_Tss_cv@@3U_RTL_CONDITION_VARIABLE@@A 0000000180022cc0     LIBCMT:thread_safe_statics.obj
 0003:00000cc8       ?_Tss_event@@3PEAXEA       0000000180022cc8     LIBCMT:thread_safe_statics.obj
 0003:00000cd0       ?encoded_sleep_condition_variable_cs@@3P6AHPEAU_RTL_CONDITION_VARIABLE@@PEAU_RTL_CRITICAL_SECTION@@K@ZEA 0000000180022cd0     LIBCMT:thread_safe_statics.obj
 0003:00000cd8       ?encoded_wake_all_condition_variable@@3P6AXPEAU_RTL_CONDITION_VARIABLE@@@ZEA 0000000180022cd8     LIBCMT:thread_safe_statics.obj
 0003:00000cf0       ?module_local_atexit_table@@3U_onexit_table_t@@A 0000000180022cf0     LIBCMT:utility.obj
 0003:00000d08       ?module_local_at_quick_exit_table@@3U_onexit_table_t@@A 0000000180022d08     LIBCMT:utility.obj
 0003:00000d20       ?is_initialized_as_dll@@3_NA 0000000180022d20     LIBCMT:utility.obj
 0003:00000d24       ?__proc_attached@@3HA      0000000180022d24     LIBCMT:dll_dllmain.obj
 0003:00000d30       GS_ExceptionRecord         0000000180022d30     LIBCMT:gs_report.obj
 0003:00000dd0       GS_ContextRecord           0000000180022dd0     LIBCMT:gs_report.obj
 0003:000012d0       ?module_handles@@3PAPEAUHINSTANCE__@@A 00000001800232d0     libvcruntime:winapi_downlevel.obj
 0003:000012f0       ?encoded_function_pointers@@3PAPEAXA 00000001800232f0     libvcruntime:winapi_downlevel.obj
 0003:00001340       ?__vcrt_startup_thread_ptd@@3U__vcrt_ptd@@A 0000000180023340     libvcruntime:per_thread_data.obj
 0003:000013b8       __vcrt_lock_table          00000001800233b8     libvcruntime:locks.obj
 0003:000013e0       __vcrt_locks_initialized   00000001800233e0     libvcruntime:locks.obj
 0003:00001438       ?heap@@3V_HeapManager@@A   0000000180023438     libvcruntime:undname.obj
 0003:00001460       __acrt_invalid_parameter_handler 0000000180023460     libucrt:invalid_parameter.obj
 0003:00001468       __acrt_new_handler         0000000180023468     libucrt:new_handler.obj
 0003:00001470       c_termination_complete     0000000180023470     libucrt:exit.obj
 0003:00001478       thread_local_exit_callback_func 0000000180023478     libucrt:exit.obj
 0003:00001480       ?c_exit_complete@?5??common_exit@@YAXHW4_crt_exit_cleanup_mode@@W4_crt_exit_return_mode@@@Z@4_NA 0000000180023480     libucrt:exit.obj
 0003:000014e8       enable_percent_n           00000001800234e8     libucrt:printf_count_output.obj
 0003:00001920       __acrt_lock_table          0000000180023920     libucrt:locks.obj
 0003:00001b28       __acrt_locks_initialized   0000000180023b28     libucrt:locks.obj
 0003:00001b30       module_handles             0000000180023b30     libucrt:winapi_thunks.obj
 0003:00001bd0       encoded_function_pointers  0000000180023bd0     libucrt:winapi_thunks.obj
 0003:00001cd0       ?state_cache@?1??__acrt_is_packaged_app@@9@4JA 0000000180023cd0     libucrt:winapi_thunks.obj
 0003:00001cec       fSystemSet                 0000000180023cec     libucrt:mbctype.obj
 0003:00001cf8       ?initialized@?1??__acrt_initialize_multibyte@@9@4_NA 0000000180023cf8     libucrt:mbctype.obj
 0003:00001d28       ctrlc_action               0000000180023d28     libucrt:signal.obj
 0003:00001d30       ctrlbreak_action           0000000180023d30     libucrt:signal.obj
 0003:00001d38       abort_action               0000000180023d38     libucrt:signal.obj
 0003:00001d40       term_action                0000000180023d40     libucrt:signal.obj
 0003:00001d48       user_matherr               0000000180023d48     libucrt:matherr.obj
 0003:00001d50       __acrt_global_new_mode     0000000180023d50     libucrt:new_mode.obj
 0003:00001d5c       __acrt_app_type            0000000180023d5c     libucrt:report_runtime_error.obj
 0003:00001da8       ?$TSS0@?1??convertToString@@YA?AV?$basic_string@DU?$char_traits@D@std@@V?$allocator@D@2@@std@@AEBV?$Local@VValue@v8@@@v8@@@Z@4HA 0000000180023da8     rfcio.obj
 0003:00001db0       ?emptyString@?1??convertToString@@YA?AV?$basic_string@DU?$char_traits@D@std@@V?$allocator@D@2@@std@@AEBV?$Local@VValue@v8@@@v8@@@Z@4V23@B 0000000180023db0     rfcio.obj
 0004:00000000       $pdata$?TraceLoggingRegister@__vcrt_trace_logging_provider@@YAJPEBU_TlgProvider_t@1@PEBU_GUID@@P6AX1KE_K2PEAU_EVENT_FILTER_DESCRIPTOR@@PEAX@Z4@Z 0000000180024000     libvcruntime:telemetry.obj
 0004:0000000c       $pdata$?_TlgEnableCallback@__vcrt_trace_logging_provider@@YAXPEBU_GUID@@KE_K1PEAU_EVENT_FILTER_DESCRIPTOR@@PEAX@Z 000000018002400c     libvcruntime:telemetry.obj
 0004:00000018       $pdata$?_TlgWrite@__vcrt_trace_logging_provider@@YAJPEBU_TlgProvider_t@1@PEFBXPEBU_GUID@@2IPEAU_EVENT_DATA_DESCRIPTOR@@@Z 0000000180024018     libvcruntime:telemetry.obj
 0004:00000024       $pdata$?InitAll@@YAXV?$Local@VObject@v8@@@v8@@@Z 0000000180024024     rfc.obj
 0004:00000030       $pdata$sprintf             0000000180024030     error.obj
 0004:0000003c       $pdata$?RfcLibError@@YA?AV?$Local@VObject@v8@@@v8@@PEAU_RFC_ERROR_INFO@@PEAVIsolate@2@@Z 000000018002403c     error.obj
 0004:00000048       $pdata$?AbapError@@YA?AV?$Local@VObject@v8@@@v8@@PEAU_RFC_ERROR_INFO@@PEAVIsolate@2@@Z 0000000180024048     error.obj
 0004:00000054       $pdata$?wrapError@@YA?AV?$Local@VValue@v8@@@v8@@PEAU_RFC_ERROR_INFO@@@Z 0000000180024054     error.obj
 0004:00000060       $pdata$?convertToString@@YA?AV?$basic_string@DU?$char_traits@D@std@@V?$allocator@D@2@@std@@AEBV?$Local@VValue@v8@@@v8@@@Z 0000000180024060     rfcio.obj
 0004:0000006c       $pdata$?fillString@@YAPEA_WAEBV?$Local@VValue@v8@@@v8@@@Z 000000018002406c     rfcio.obj
 0004:00000078       $pdata$?fillVariable@@YA?AV?$Local@VValue@v8@@@v8@@W4_RFCTYPE@@PEAURFC_DATA_CONTAINER@@PEA_WV12@PEAU_RFC_TYPE_DESC_HANDLE@@@Z 0000000180024078     rfcio.obj
 0004:00000084       $pdata$?fillFunctionParameter@@YA?AV?$Local@VValue@v8@@@v8@@PEAU_RFC_FUNCTION_DESC_HANDLE@@PEAURFC_DATA_CONTAINER@@V12@2@Z 0000000180024084     rfcio.obj
 0004:00000090       $pdata$?wrapResult@@YA?AV?$Local@VObject@v8@@@v8@@PEAU_RFC_FUNCTION_DESC_HANDLE@@PEAURFC_DATA_CONTAINER@@_N@Z 0000000180024090     rfcio.obj
 0004:0000009c       $pdata$1$?wrapResult@@YA?AV?$Local@VObject@v8@@@v8@@PEAU_RFC_FUNCTION_DESC_HANDLE@@PEAURFC_DATA_CONTAINER@@_N@Z 000000018002409c     rfcio.obj
 0004:000000a8       $pdata$2$?wrapResult@@YA?AV?$Local@VObject@v8@@@v8@@PEAU_RFC_FUNCTION_DESC_HANDLE@@PEAURFC_DATA_CONTAINER@@_N@Z 00000001800240a8     rfcio.obj
 0004:000000b4       $pdata$?wrapString@@YA?AV?$Local@VValue@v8@@@v8@@PEA_WH_N@Z 00000001800240b4     rfcio.obj
 0004:000000c0       $pdata$0$?wrapString@@YA?AV?$Local@VValue@v8@@@v8@@PEA_WH_N@Z 00000001800240c0     rfcio.obj
 0004:000000cc       $pdata$1$?wrapString@@YA?AV?$Local@VValue@v8@@@v8@@PEA_WH_N@Z 00000001800240cc     rfcio.obj
 0004:000000d8       $pdata$?wrapStructure@@YA?AV?$Local@VValue@v8@@@v8@@PEAU_RFC_TYPE_DESC_HANDLE@@PEAURFC_DATA_CONTAINER@@_N@Z 00000001800240d8     rfcio.obj
 0004:000000e4       $pdata$1$?wrapStructure@@YA?AV?$Local@VValue@v8@@@v8@@PEAU_RFC_TYPE_DESC_HANDLE@@PEAURFC_DATA_CONTAINER@@_N@Z 00000001800240e4     rfcio.obj
 0004:000000f0       $pdata$2$?wrapStructure@@YA?AV?$Local@VValue@v8@@@v8@@PEAU_RFC_TYPE_DESC_HANDLE@@PEAURFC_DATA_CONTAINER@@_N@Z 00000001800240f0     rfcio.obj
 0004:000000fc       $pdata$?wrapVariable@@YA?AV?$Local@VValue@v8@@@v8@@W4_RFCTYPE@@PEAURFC_DATA_CONTAINER@@PEA_WIPEAU_RFC_TYPE_DESC_HANDLE@@_N@Z 00000001800240fc     rfcio.obj
 0004:00000108       $pdata$?assign@?$basic_string@DU?$char_traits@D@std@@V?$allocator@D@2@@std@@QEAAAEAV12@PEBD_K@Z 0000000180024108     rfcio.obj
 0004:00000114       $pdata$?assign@?$basic_string@DU?$char_traits@D@std@@V?$allocator@D@2@@std@@QEAAAEAV12@AEBV12@_K1@Z 0000000180024114     rfcio.obj
 0004:00000120       $pdata$?_Grow@?$basic_string@DU?$char_traits@D@std@@V?$allocator@D@2@@std@@QEAA_N_K_N@Z 0000000180024120     rfcio.obj
 0004:0000012c       $pdata$0$?_Grow@?$basic_string@DU?$char_traits@D@std@@V?$allocator@D@2@@std@@QEAA_N_K_N@Z 000000018002412c     rfcio.obj
 0004:00000138       $pdata$2$?_Grow@?$basic_string@DU?$char_traits@D@std@@V?$allocator@D@2@@std@@QEAA_N_K_N@Z 0000000180024138     rfcio.obj
 0004:00000144       $pdata$3$?_Grow@?$basic_string@DU?$char_traits@D@std@@V?$allocator@D@2@@std@@QEAA_N_K_N@Z 0000000180024144     rfcio.obj
 0004:00000150       $pdata$?erase@?$basic_string@DU?$char_traits@D@std@@V?$allocator@D@2@@std@@QEAAAEAV12@_K0@Z 0000000180024150     rfcio.obj
 0004:0000015c       $pdata$?_Copy@?$basic_string@DU?$char_traits@D@std@@V?$allocator@D@2@@std@@QEAAX_K0@Z 000000018002415c     rfcio.obj
 0004:00000168       $pdata$?NODE_SET_PROTOTYPE_METHOD@node@@YAXV?$Local@VFunctionTemplate@v8@@@v8@@PEBDP6AXAEBV?$FunctionCallbackInfo@VValue@v8@@@3@@Z@Z 0000000180024168     Client.obj
 0004:00000174       $pdata$?Wrap@ObjectWrap@node@@IEAAXV?$Local@VObject@v8@@@v8@@@Z 0000000180024174     Client.obj
 0004:00000180       $pdata$?Ref@ObjectWrap@node@@MEAAXXZ 0000000180024180     Client.obj
 0004:0000018c       $pdata$?Unref@ObjectWrap@node@@MEAAXXZ 000000018002418c     Client.obj
 0004:00000198       $pdata$?WeakCallback@ObjectWrap@node@@CAXAEBV?$WeakCallbackData@VObject@v8@@VObjectWrap@node@@@v8@@@Z 0000000180024198     Client.obj
 0004:000001a4       $pdata$??_GObjectWrap@node@@UEAAPEAXI@Z 00000001800241a4     Client.obj
 0004:000001b0       $pdata$??_GClient@@EEAAPEAXI@Z 00000001800241b0     Client.obj
 0004:000001bc       $pdata$??1Client@@EEAA@XZ  00000001800241bc     Client.obj
 0004:000001c8       $pdata$0$??1Client@@EEAA@XZ 00000001800241c8     Client.obj
 0004:000001d4       $pdata$1$??1Client@@EEAA@XZ 00000001800241d4     Client.obj
 0004:000001e0       $pdata$2$??1Client@@EEAA@XZ 00000001800241e0     Client.obj
 0004:000001ec       $pdata$3$??1Client@@EEAA@XZ 00000001800241ec     Client.obj
 0004:000001f8       $pdata$?Init@Client@@SAXV?$Local@VObject@v8@@@v8@@@Z 00000001800241f8     Client.obj
 0004:00000204       $pdata$?New@Client@@CAXAEBV?$FunctionCallbackInfo@VValue@v8@@@v8@@@Z 0000000180024204     Client.obj
 0004:00000210       $pdata$3$?New@Client@@CAXAEBV?$FunctionCallbackInfo@VValue@v8@@@v8@@@Z 0000000180024210     Client.obj
 0004:0000021c       $pdata$4$?New@Client@@CAXAEBV?$FunctionCallbackInfo@VValue@v8@@@v8@@@Z 000000018002421c     Client.obj
 0004:00000228       $pdata$5$?New@Client@@CAXAEBV?$FunctionCallbackInfo@VValue@v8@@@v8@@@Z 0000000180024228     Client.obj
 0004:00000234       $pdata$6$?New@Client@@CAXAEBV?$FunctionCallbackInfo@VValue@v8@@@v8@@@Z 0000000180024234     Client.obj
 0004:00000240       $pdata$?ConnectAsync@Client@@CAXPEAUuv_work_s@@@Z 0000000180024240     Client.obj
 0004:0000024c       $pdata$?ConnectAsyncAfter@Client@@CAXPEAUuv_work_s@@@Z 000000018002424c     Client.obj
 0004:00000258       $pdata$?Connect@Client@@CAXAEBV?$FunctionCallbackInfo@VValue@v8@@@v8@@@Z 0000000180024258     Client.obj
 0004:00000264       $pdata$?Close@Client@@CAXAEBV?$FunctionCallbackInfo@VValue@v8@@@v8@@@Z 0000000180024264     Client.obj
 0004:00000270       $pdata$?Reopen@Client@@CAXAEBV?$FunctionCallbackInfo@VValue@v8@@@v8@@@Z 0000000180024270     Client.obj
 0004:0000027c       $pdata$?IsAlive@Client@@CAXAEBV?$FunctionCallbackInfo@VValue@v8@@@v8@@@Z 000000018002427c     Client.obj
 0004:00000288       $pdata$?InvokeAsync@Client@@CAXPEAUuv_work_s@@@Z 0000000180024288     Client.obj
 0004:00000294       $pdata$?InvokeAsyncAfter@Client@@CAXPEAUuv_work_s@@@Z 0000000180024294     Client.obj
 0004:000002a0       $pdata$?Invoke@Client@@CAXAEBV?$FunctionCallbackInfo@VValue@v8@@@v8@@@Z 00000001800242a0     Client.obj
 0004:000002ac       $pdata$0$?Invoke@Client@@CAXAEBV?$FunctionCallbackInfo@VValue@v8@@@v8@@@Z 00000001800242ac     Client.obj
 0004:000002b8       $pdata$1$?Invoke@Client@@CAXAEBV?$FunctionCallbackInfo@VValue@v8@@@v8@@@Z 00000001800242b8     Client.obj
 0004:000002c4       $pdata$?Ping@Client@@CAXAEBV?$FunctionCallbackInfo@VValue@v8@@@v8@@@Z 00000001800242c4     Client.obj
 0004:000002d0       $pdata$?ConnectionInfo@Client@@CAXAEBV?$FunctionCallbackInfo@VValue@v8@@@v8@@@Z 00000001800242d0     Client.obj
 0004:000002dc       $pdata$?GetVersion@Client@@CAXAEBV?$FunctionCallbackInfo@VValue@v8@@@v8@@@Z 00000001800242dc     Client.obj
 0004:000002e8       $pdata$load_exe_hook       00000001800242e8     win_delay_load_hook.obj
 0004:00000300       $pdata$??0bad_alloc@std@@QEAA@AEBV01@@Z 0000000180024300     libcpmt:xthrow.obj
 0004:0000030c       $pdata$??0exception@std@@QEAA@AEBV01@@Z 000000018002430c     libcpmt:xthrow.obj
 0004:00000318       $pdata$??0length_error@std@@QEAA@AEBV01@@Z 0000000180024318     libcpmt:xthrow.obj
 0004:00000324       $pdata$??0length_error@std@@QEAA@PEBD@Z 0000000180024324     libcpmt:xthrow.obj
 0004:00000330       $pdata$??0logic_error@std@@QEAA@AEBV01@@Z 0000000180024330     libcpmt:xthrow.obj
 0004:0000033c       $pdata$??0out_of_range@std@@QEAA@AEBV01@@Z 000000018002433c     libcpmt:xthrow.obj
 0004:00000348       $pdata$??0out_of_range@std@@QEAA@PEBD@Z 0000000180024348     libcpmt:xthrow.obj
 0004:00000354       $pdata$?_Xbad_alloc@std@@YAXXZ 0000000180024354     libcpmt:xthrow.obj
 0004:00000354       $pdata$?__scrt_throw_std_bad_alloc@@YAXXZ 0000000180024354     LIBCMT:throw_bad_alloc.obj
 0004:00000360       $pdata$?_Xlength_error@std@@YAXPEBD@Z 0000000180024360     libcpmt:xthrow.obj
 0004:0000036c       $pdata$?_Xout_of_range@std@@YAXPEBD@Z 000000018002436c     libcpmt:xthrow.obj
 0004:00000384       $pdata$?__scrt_initialize_thread_safe_statics@@YAHXZ 0000000180024384     LIBCMT:thread_safe_statics.obj
 0004:00000390       $pdata$?__scrt_uninitialize_thread_safe_statics@@YAXXZ 0000000180024390     LIBCMT:thread_safe_statics.obj
 0004:0000039c       $pdata$_Init_thread_footer 000000018002439c     LIBCMT:thread_safe_statics.obj
 0004:000003a8       $pdata$_Init_thread_header 00000001800243a8     LIBCMT:thread_safe_statics.obj
 0004:000003b4       $pdata$_Init_thread_notify 00000001800243b4     LIBCMT:thread_safe_statics.obj
 0004:000003c0       $pdata$_Init_thread_wait   00000001800243c0     LIBCMT:thread_safe_statics.obj
 0004:000003cc       $pdata$??2@YAPEAX_K@Z      00000001800243cc     LIBCMT:new_scalar.obj
 0004:000003d8       $pdata$__scrt_acquire_startup_lock 00000001800243d8     LIBCMT:utility.obj
 0004:000003e4       $pdata$__scrt_dllmain_after_initialize_c 00000001800243e4     LIBCMT:utility.obj
 0004:000003f0       $pdata$__scrt_dllmain_before_initialize_c 00000001800243f0     LIBCMT:utility.obj
 0004:000003fc       $pdata$__scrt_dllmain_crt_thread_attach 00000001800243fc     LIBCMT:utility.obj
 0004:00000408       $pdata$__scrt_dllmain_crt_thread_detach 0000000180024408     LIBCMT:utility.obj
 0004:00000414       $pdata$__scrt_dllmain_exception_filter 0000000180024414     LIBCMT:utility.obj
 0004:00000420       $pdata$__scrt_dllmain_uninitialize_c 0000000180024420     LIBCMT:utility.obj
 0004:0000042c       $pdata$__scrt_dllmain_uninitialize_critical 000000018002442c     LIBCMT:utility.obj
 0004:00000438       $pdata$__scrt_initialize_crt 0000000180024438     LIBCMT:utility.obj
 0004:00000444       $pdata$__scrt_initialize_onexit_tables 0000000180024444     LIBCMT:utility.obj
 0004:00000450       $pdata$__scrt_is_nonwritable_in_current_image 0000000180024450     LIBCMT:utility.obj
 0004:0000045c       $pdata$__scrt_release_startup_lock 000000018002445c     LIBCMT:utility.obj
 0004:00000468       $pdata$__scrt_uninitialize_crt 0000000180024468     LIBCMT:utility.obj
 0004:00000474       $pdata$_onexit             0000000180024474     LIBCMT:utility.obj
 0004:00000480       $pdata$atexit              0000000180024480     LIBCMT:utility.obj
 0004:0000048c       $pdata$?dllmain_crt_dispatch@@YAHQEAUHINSTANCE__@@KQEAX@Z 000000018002448c     LIBCMT:dll_dllmain.obj
 0004:00000498       $pdata$?dllmain_crt_process_attach@@YAHQEAUHINSTANCE__@@QEAX@Z 0000000180024498     LIBCMT:dll_dllmain.obj
 0004:000004a4       $pdata$?dllmain_crt_process_detach@@YAH_N@Z 00000001800244a4     LIBCMT:dll_dllmain.obj
 0004:000004b0       $pdata$?dllmain_dispatch@@YAHQEAUHINSTANCE__@@KQEAX@Z 00000001800244b0     LIBCMT:dll_dllmain.obj
 0004:000004bc       $pdata$?dllmain_raw@@YAHQEAUHINSTANCE__@@KQEAX@Z 00000001800244bc     LIBCMT:dll_dllmain.obj
 0004:000004c8       $pdata$_DllMainCRTStartup  00000001800244c8     LIBCMT:dll_dllmain.obj
 0004:000004d4       $pdata$??_Gtype_info@@UEAAPEAXI@Z 00000001800244d4     LIBCMT:std_type_info_static.obj
 0004:000004e0       $pdata$__raise_securityfailure 00000001800244e0     LIBCMT:gs_report.obj
 0004:000004ec       $pdata$__report_gsfailure  00000001800244ec     LIBCMT:gs_report.obj
 0004:000004f8       $pdata$capture_previous_context 00000001800244f8     LIBCMT:gs_report.obj
 0004:00000504       $pdata$__scrt_fastfail     0000000180024504     LIBCMT:utility_desktop.obj
 0004:00000510       $pdata$??0bad_array_new_length@std@@QEAA@AEBV01@@Z 0000000180024510     LIBCMT:throw_bad_alloc.obj
 0004:0000051c       $pdata$??_Glength_error@std@@UEAAPEAXI@Z 000000018002451c     libcpmt:xthrow.obj
 0004:0000051c       $pdata$??_Glogic_error@std@@UEAAPEAXI@Z 000000018002451c     libcpmt:xthrow.obj
 0004:0000051c       $pdata$??_Gout_of_range@std@@UEAAPEAXI@Z 000000018002451c     libcpmt:xthrow.obj
 0004:0000051c       $pdata$??_Gexception@std@@UEAAPEAXI@Z 000000018002451c     libcpmt:xthrow.obj
 0004:0000051c       $pdata$??_Gbad_alloc@std@@UEAAPEAXI@Z 000000018002451c     libcpmt:xthrow.obj
 0004:0000051c       $pdata$??_Gbad_array_new_length@std@@UEAAPEAXI@Z 000000018002451c     LIBCMT:throw_bad_alloc.obj
 0004:00000528       $pdata$?__scrt_throw_std_bad_array_new_length@@YAXXZ 0000000180024528     LIBCMT:throw_bad_alloc.obj
 0004:00000534       $pdata$__isa_available_init 0000000180024534     LIBCMT:_cpu_disp_.obj
 0004:00000540       $pdata$__security_init_cookie 0000000180024540     LIBCMT:gs_support.obj
 0004:0000054c       $pdata$__scrt_initialize_default_local_stdio_options 000000018002454c     LIBCMT:default_local_stdio_options.obj
 0004:00000558       $pdata$_RTC_Initialize     0000000180024558     LIBCMT:_initsect_.obj
 0004:00000564       $pdata$_RTC_Terminate      0000000180024564     LIBCMT:_initsect_.obj
 0004:0000057c       $pdata$__std_exception_copy 000000018002457c     libvcruntime:std_exception.obj
 0004:00000588       $pdata$__std_exception_destroy 0000000180024588     libvcruntime:std_exception.obj
 0004:00000594       $pdata$_CxxThrowException  0000000180024594     libvcruntime:throw.obj
 0004:000005a0       $pdata$?try_get_function@@YAPEAXW4function_id@?A0x61ce2399@@QEBDQEBW4module_id@2@2@Z 00000001800245a0     libvcruntime:winapi_downlevel.obj
 0004:000005ac       $pdata$__vcrt_EventRegister 00000001800245ac     libvcruntime:winapi_downlevel.obj
 0004:000005b8       $pdata$__vcrt_EventSetInformation 00000001800245b8     libvcruntime:winapi_downlevel.obj
 0004:000005c4       $pdata$__vcrt_EventUnregister 00000001800245c4     libvcruntime:winapi_downlevel.obj
 0004:000005d0       $pdata$__vcrt_EventWriteTransfer 00000001800245d0     libvcruntime:winapi_downlevel.obj
 0004:000005dc       $pdata$__vcrt_FlsAlloc     00000001800245dc     libvcruntime:winapi_downlevel.obj
 0004:000005e8       $pdata$__vcrt_FlsFree      00000001800245e8     libvcruntime:winapi_downlevel.obj
 0004:000005f4       $pdata$__vcrt_FlsGetValue  00000001800245f4     libvcruntime:winapi_downlevel.obj
 0004:00000600       $pdata$__vcrt_FlsSetValue  0000000180024600     libvcruntime:winapi_downlevel.obj
 0004:0000060c       $pdata$__vcrt_InitializeCriticalSectionEx 000000018002460c     libvcruntime:winapi_downlevel.obj
 0004:00000618       $pdata$__vcrt_initialize_winapi_thunks 0000000180024618     libvcruntime:winapi_downlevel.obj
 0004:00000624       $pdata$__vcrt_uninitialize_winapi_thunks 0000000180024624     libvcruntime:winapi_downlevel.obj
 0004:00000630       $pdata$__vcrt_initialize   0000000180024630     libvcruntime:initialization.obj
 0004:0000063c       $pdata$__vcrt_thread_attach 000000018002463c     libvcruntime:initialization.obj
 0004:00000648       $pdata$__vcrt_thread_detach 0000000180024648     libvcruntime:initialization.obj
 0004:00000654       $pdata$__vcrt_uninitialize 0000000180024654     libvcruntime:initialization.obj
 0004:00000660       $pdata$__vcrt_uninitialize_critical 0000000180024660     libvcruntime:initialization.obj
 0004:0000066c       $pdata$__C_specific_handler 000000018002466c     libvcruntime:_chandler_.obj
 0004:00000678       $pdata$__telemetry_main_invoke_trigger 0000000180024678     libvcruntime:telemetry.obj
 0004:00000684       $pdata$__telemetry_main_return_trigger 0000000180024684     libvcruntime:telemetry.obj
 0004:00000690       $pdata$__vcrt_uninitialize_telemetry_provider 0000000180024690     libvcruntime:telemetry.obj
 0004:000006a8       $pdata$__std_type_info_destroy_list 00000001800246a8     libvcruntime:std_type_info.obj
 0004:000006b4       $pdata$__vcrt_freefls      00000001800246b4     libvcruntime:per_thread_data.obj
 0004:000006c0       $pdata$__vcrt_freeptd      00000001800246c0     libvcruntime:per_thread_data.obj
 0004:000006cc       $pdata$__vcrt_getptd_noexit 00000001800246cc     libvcruntime:per_thread_data.obj
 0004:000006d8       $pdata$__vcrt_initialize_ptd 00000001800246d8     libvcruntime:per_thread_data.obj
 0004:000006e4       $pdata$__vcrt_uninitialize_ptd 00000001800246e4     libvcruntime:per_thread_data.obj
 0004:000006f0       $pdata$__vcrt_initialize_locks 00000001800246f0     libvcruntime:locks.obj
 0004:000006fc       $pdata$__vcrt_uninitialize_locks 00000001800246fc     libvcruntime:locks.obj
 0004:00000738       $pdata$??$ensure_buffer_is_big_enough@D@formatting_buffer@__crt_stdio_output@@QEAA_N_K@Z 0000000180024738     libucrt:output.obj
 0004:00000744       $pdata$??$type_case_integer_parse_into_buffer@I@?$output_processor@DV?$string_output_adapter@D@__crt_stdio_output@@V?$standard_base@DV?$string_output_adapter@D@__crt_stdio_output@@@2@@__crt_stdio_output@@AEAAXII_N@Z 0000000180024744     libucrt:output.obj
 0004:00000750       $pdata$??$type_case_integer_parse_into_buffer@_K@?$output_processor@DV?$string_output_adapter@D@__crt_stdio_output@@V?$standard_base@DV?$string_output_adapter@D@__crt_stdio_output@@@2@@__crt_stdio_output@@AEAAX_KI_N@Z 0000000180024750     libucrt:output.obj
 0004:0000075c       $pdata$??$write_multiple_characters@V?$string_output_adapter@D@__crt_stdio_output@@D@__crt_stdio_output@@YAXAEBV?$string_output_adapter@D@0@DHQEAH@Z 000000018002475c     libucrt:output.obj
 0004:00000768       $pdata$??0?$output_processor@DV?$string_output_adapter@D@__crt_stdio_output@@V?$standard_base@DV?$string_output_adapter@D@__crt_stdio_output@@@2@@__crt_stdio_output@@QEAA@AEBV?$string_output_adapter@D@1@_KQEBDQEAU__crt_locale_pointers@@QEAD@Z 0000000180024768     libucrt:output.obj
 0004:00000774       $pdata$??0_LocaleUpdate@@QEAA@QEAU__crt_locale_pointers@@@Z 0000000180024774     libucrt:output.obj
 0004:00000780       $pdata$?force_decimal_point@__crt_stdio_output@@YAXPEADQEAU__crt_locale_pointers@@@Z 0000000180024780     libucrt:output.obj
 0004:0000078c       $pdata$?parse_int_from_format_string@?$output_processor@DV?$string_output_adapter@D@__crt_stdio_output@@V?$standard_base@DV?$string_output_adapter@D@__crt_stdio_output@@@2@@__crt_stdio_output@@AEAA_NQEAH@Z 000000018002478c     libucrt:output.obj
 0004:00000798       $pdata$?process@?$output_processor@DV?$string_output_adapter@D@__crt_stdio_output@@V?$standard_base@DV?$string_output_adapter@D@__crt_stdio_output@@@2@@__crt_stdio_output@@QEAAHXZ 0000000180024798     libucrt:output.obj
 0004:000007a4       $pdata$?state_case_normal@?$output_processor@DV?$string_output_adapter@D@__crt_stdio_output@@V?$standard_base@DV?$string_output_adapter@D@__crt_stdio_output@@@2@@__crt_stdio_output@@AEAA_NXZ 00000001800247a4     libucrt:output.obj
 0004:000007b0       $pdata$?state_case_normal_tchar@?$output_processor@DV?$string_output_adapter@D@__crt_stdio_output@@V?$standard_base@DV?$string_output_adapter@D@__crt_stdio_output@@@2@@__crt_stdio_output@@AEAA_ND@Z 00000001800247b0     libucrt:output.obj
 0004:000007bc       $pdata$?state_case_size@?$output_processor@DV?$string_output_adapter@D@__crt_stdio_output@@V?$standard_base@DV?$string_output_adapter@D@__crt_stdio_output@@@2@@__crt_stdio_output@@AEAA_NXZ 00000001800247bc     libucrt:output.obj
 0004:000007c8       $pdata$?state_case_type@?$output_processor@DV?$string_output_adapter@D@__crt_stdio_output@@V?$standard_base@DV?$string_output_adapter@D@__crt_stdio_output@@@2@@__crt_stdio_output@@AEAA_NXZ 00000001800247c8     libucrt:output.obj
 0004:000007d4       $pdata$?type_case_Z@?$output_processor@DV?$string_output_adapter@D@__crt_stdio_output@@V?$standard_base@DV?$string_output_adapter@D@__crt_stdio_output@@@2@@__crt_stdio_output@@AEAA_NXZ 00000001800247d4     libucrt:output.obj
 0004:000007e0       $pdata$?type_case_a@?$output_processor@DV?$string_output_adapter@D@__crt_stdio_output@@V?$standard_base@DV?$string_output_adapter@D@__crt_stdio_output@@@2@@__crt_stdio_output@@AEAA_NXZ 00000001800247e0     libucrt:output.obj
 0004:000007ec       $pdata$?type_case_c_tchar@?$output_processor@DV?$string_output_adapter@D@__crt_stdio_output@@V?$standard_base@DV?$string_output_adapter@D@__crt_stdio_output@@@2@@__crt_stdio_output@@AEAA_ND@Z 00000001800247ec     libucrt:output.obj
 0004:000007f8       $pdata$?type_case_integer@?$output_processor@DV?$string_output_adapter@D@__crt_stdio_output@@V?$standard_base@DV?$string_output_adapter@D@__crt_stdio_output@@@2@@__crt_stdio_output@@AEAA_NI_N@Z 00000001800247f8     libucrt:output.obj
 0004:00000804       $pdata$?type_case_n@?$output_processor@DV?$string_output_adapter@D@__crt_stdio_output@@V?$standard_base@DV?$string_output_adapter@D@__crt_stdio_output@@@2@@__crt_stdio_output@@AEAA_NXZ 0000000180024804     libucrt:output.obj
 0004:00000810       $pdata$?type_case_s@?$output_processor@DV?$string_output_adapter@D@__crt_stdio_output@@V?$standard_base@DV?$string_output_adapter@D@__crt_stdio_output@@@2@@__crt_stdio_output@@AEAA_NXZ 0000000180024810     libucrt:output.obj
 0004:0000081c       $pdata$?write_stored_string_tchar@?$output_processor@DV?$string_output_adapter@D@__crt_stdio_output@@V?$standard_base@DV?$string_output_adapter@D@__crt_stdio_output@@@2@@__crt_stdio_output@@AEAA_ND@Z 000000018002481c     libucrt:output.obj
 0004:00000828       $pdata$?write_string@?$string_output_adapter@D@__crt_stdio_output@@QEBAXQEBDHQEAH1@Z 0000000180024828     libucrt:output.obj
 0004:00000834       $pdata$__stdio_common_vsprintf 0000000180024834     libucrt:output.obj
 0004:00000840       $pdata$isdigit             0000000180024840     libucrt:_ctype.obj
 0004:0000084c       $pdata$isspace             000000018002484c     libucrt:_ctype.obj
 0004:00000858       $pdata$__acrt_call_reportfault 0000000180024858     libucrt:invalid_parameter.obj
 0004:00000864       $pdata$_invalid_parameter  0000000180024864     libucrt:invalid_parameter.obj
 0004:00000870       $pdata$_invalid_parameter_noinfo 0000000180024870     libucrt:invalid_parameter.obj
 0004:0000087c       $pdata$_invalid_parameter_noinfo_noreturn 000000018002487c     libucrt:invalid_parameter.obj
 0004:00000888       $pdata$_invoke_watson      0000000180024888     libucrt:invalid_parameter.obj
 0004:00000894       $pdata$_stricmp            0000000180024894     libucrt:stricmp.obj
 0004:000008a0       $pdata$_stricmp_l          00000001800248a0     libucrt:stricmp.obj
 0004:000008ac       $pdata$_callnewh           00000001800248ac     libucrt:new_handler.obj
 0004:000008b8       $pdata$_query_new_handler  00000001800248b8     libucrt:new_handler.obj
 0004:000008c4       $pdata$_seh_filter_exe     00000001800248c4     libucrt:exception_filter.obj
 0004:000008d0       $pdata$?common_exit@@YAXHW4_crt_exit_cleanup_mode@@W4_crt_exit_return_mode@@@Z 00000001800248d0     libucrt:exit.obj
 0004:000008dc       $pdata$?exit_or_terminate_process@@YAXI@Z 00000001800248dc     libucrt:exit.obj
 0004:000008e8       $pdata$?try_cor_exit_process@@YAXI@Z 00000001800248e8     libucrt:exit.obj
 0004:000008f4       $pdata$??$common_initialize_environment_nolock@D@@YAHXZ 00000001800248f4     libucrt:environment_initialization.obj
 0004:00000900       $pdata$??$create_environment@D@@YAQEAPEADQEAD@Z 0000000180024900     libucrt:environment_initialization.obj
 0004:0000090c       $pdata$??$free_environment@D@@YAXQEAPEAD@Z 000000018002490c     libucrt:environment_initialization.obj
 0004:0000090c       $pdata$??$free_environment@_W@@YAXQEAPEA_W@Z 000000018002490c     libucrt:environment_initialization.obj
 0004:00000918       $pdata$??$uninitialize_environment_internal@D@@YAXAEAPEAPEAD@Z 0000000180024918     libucrt:environment_initialization.obj
 0004:00000924       $pdata$??$uninitialize_environment_internal@_W@@YAXAEAPEAPEA_W@Z 0000000180024924     libucrt:environment_initialization.obj
 0004:00000930       $pdata$__dcrt_uninitialize_environments_nolock 0000000180024930     libucrt:environment_initialization.obj
 0004:0000093c       $pdata$??$?RV<lambda_b8c45f8f788dd370798f47cfe8ac3a86>@@AEAV<lambda_4e60a939b0d047cfe11ddc22648dfba9>@@V<lambda_332c3edc96d0294ec56c57d38c1cdfd5>@@@?$__crt_seh_guarded_call@H@@QEAAH$$QEAV<lambda_b8c45f8f788dd370798f47cfe8ac3a86>@@AEAV<lambda_4e60a939b0d047cfe11ddc22648dfba9>@@$$QEAV<lambda_332c3edc96d0294ec56c57d38c1cdfd5>@@@Z 000000018002493c     libucrt:onexit.obj
 0004:00000948       $pdata$??$?RV<lambda_e24bbb7b643b32fcea6fa61b31d4c984>@@AEAV<lambda_275893d493268fdec8709772e3fcec0e>@@V<lambda_9d71df4d7cf3f480f8d633942495c3b0>@@@?$__crt_seh_guarded_call@H@@QEAAH$$QEAV<lambda_e24bbb7b643b32fcea6fa61b31d4c984>@@AEAV<lambda_275893d493268fdec8709772e3fcec0e>@@$$QEAV<lambda_9d71df4d7cf3f480f8d633942495c3b0>@@@Z 0000000180024948     libucrt:onexit.obj
 0004:00000954       $pdata$??R<lambda_4e60a939b0d047cfe11ddc22648dfba9>@@QEBAHXZ 0000000180024954     libucrt:onexit.obj
 0004:00000960       $pdata$_execute_onexit_table 0000000180024960     libucrt:onexit.obj
 0004:0000096c       $pdata$_register_onexit_function 000000018002496c     libucrt:onexit.obj
 0004:00000978       $pdata$initialize_c        0000000180024978     libucrt:initialization.obj
 0004:00000984       $pdata$uninitialize_environment 0000000180024984     libucrt:initialization.obj
 0004:00000990       $pdata$initialize_pointers 0000000180024990     libucrt:initialization.obj
 0004:0000099c       $pdata$uninitialize_allocated_memory 000000018002499c     libucrt:initialization.obj
 0004:000009a8       $pdata$__acrt_thread_attach 00000001800249a8     libucrt:initialization.obj
 0004:000009b4       $pdata$__acrt_thread_detach 00000001800249b4     libucrt:initialization.obj
 0004:000009c0       $pdata$__acrt_uninitialize_critical 00000001800249c0     libucrt:initialization.obj
 0004:000009cc       $pdata$_initterm           00000001800249cc     libucrt:initterm.obj
 0004:000009d8       $pdata$_initterm_e         00000001800249d8     libucrt:initterm.obj
 0004:000009e4       $pdata$terminate           00000001800249e4     libucrt:terminate.obj
 0004:000009f0       $pdata$strcpy_s            00000001800249f0     libucrt:strcpy_s.obj
 0004:000009fc       $pdata$_free_base          00000001800249fc     libucrt:free_base.obj
 0004:00000a08       $pdata$_malloc_base        0000000180024a08     libucrt:malloc_base.obj
 0004:00000a14       $pdata$abort               0000000180024a14     libucrt:abort.obj
 0004:00000a20       $pdata$_calloc_base        0000000180024a20     libucrt:calloc_base.obj
 0004:00000a2c       $pdata$??$parse_integer@KV?$c_string_character_source@D@__crt_strtox@@@__crt_strtox@@YAKQEAU__crt_locale_pointers@@V?$c_string_character_source@D@0@H_N@Z 0000000180024a2c     libucrt:atox.obj
 0004:00000a38       $pdata$?internal_isupper_l@@YA_NHQEAU__crt_locale_pointers@@@Z 0000000180024a38     libucrt:tolower_toupper.obj
 0004:00000a44       $pdata$_tolower_l          0000000180024a44     libucrt:tolower_toupper.obj
 0004:00000a50       $pdata$tolower             0000000180024a50     libucrt:tolower_toupper.obj
 0004:00000a5c       $pdata$__acrt_errno_map_os_error 0000000180024a5c     libucrt:errno.obj
 0004:00000a68       $pdata$__doserrno          0000000180024a68     libucrt:errno.obj
 0004:00000a74       $pdata$_errno              0000000180024a74     libucrt:errno.obj
 0004:00000a80       $pdata$strtol              0000000180024a80     libucrt:strtox.obj
 0004:00000a8c       $pdata$_mbtowc_l           0000000180024a8c     libucrt:mbtowc.obj
 0004:00000a98       $pdata$_wctomb_s_l         0000000180024a98     libucrt:wctomb.obj
 0004:00000aa4       $pdata$wctomb_s            0000000180024aa4     libucrt:wctomb.obj
 0004:00000ab0       $pdata$strnlen             0000000180024ab0     libucrt:strnlen.obj
 0004:00000abc       $pdata$wcsnlen             0000000180024abc     libucrt:strnlen.obj
 0004:00000ac8       $pdata$??$?RV<lambda_46352004c1216016012b18bd6f87e700>@@AEAV<lambda_3bd07e1a1191394380780325891bf33f>@@V<lambda_334532d3f185bcaa59b5be82d7d22bff>@@@?$__crt_seh_guarded_call@X@@QEAAX$$QEAV<lambda_46352004c1216016012b18bd6f87e700>@@AEAV<lambda_3bd07e1a1191394380780325891bf33f>@@$$QEAV<lambda_334532d3f185bcaa59b5be82d7d22bff>@@@Z 0000000180024ac8     libucrt:per_thread_data.obj
 0004:00000ad4       $pdata$??$?RV<lambda_5e887d1dcbef67a5eb4283622ba103bf>@@AEAV<lambda_4466841279450cc726390878d4a41900>@@V<lambda_341c25c0346d94847f1f3c463c57e077>@@@?$__crt_seh_guarded_call@X@@QEAAX$$QEAV<lambda_5e887d1dcbef67a5eb4283622ba103bf>@@AEAV<lambda_4466841279450cc726390878d4a41900>@@$$QEAV<lambda_341c25c0346d94847f1f3c463c57e077>@@@Z 0000000180024ad4     libucrt:per_thread_data.obj
 0004:00000ae0       $pdata$??$?RV<lambda_72d1df2b273a38828b1ce30cbf4cdab5>@@AEAV<lambda_876a65b173b8412d3a47c70a915b0cf4>@@V<lambda_41932305e351933ebe8f8be3ed8bb5dc>@@@?$__crt_seh_guarded_call@X@@QEAAX$$QEAV<lambda_72d1df2b273a38828b1ce30cbf4cdab5>@@AEAV<lambda_876a65b173b8412d3a47c70a915b0cf4>@@$$QEAV<lambda_41932305e351933ebe8f8be3ed8bb5dc>@@@Z 0000000180024ae0     libucrt:per_thread_data.obj
 0004:00000aec       $pdata$??$?RV<lambda_fb3a7dec4e47f37f22dae91bb15c9095>@@AEAV<lambda_698284760c8add0bfb0756c19673e34b>@@V<lambda_dfb8eca1e75fef3034a8fb18dd509707>@@@?$__crt_seh_guarded_call@X@@QEAAX$$QEAV<lambda_fb3a7dec4e47f37f22dae91bb15c9095>@@AEAV<lambda_698284760c8add0bfb0756c19673e34b>@@$$QEAV<lambda_dfb8eca1e75fef3034a8fb18dd509707>@@@Z 0000000180024aec     libucrt:per_thread_data.obj
 0004:00000af8       $pdata$?construct_ptd_array@@YAXQEAU__acrt_ptd@@@Z 0000000180024af8     libucrt:per_thread_data.obj
 0004:00000b04       $pdata$?destroy_fls@@YAXPEAX@Z 0000000180024b04     libucrt:per_thread_data.obj
 0004:00000b10       $pdata$?destroy_ptd_array@@YAXQEAU__acrt_ptd@@@Z 0000000180024b10     libucrt:per_thread_data.obj
 0004:00000b1c       $pdata$?replace_current_thread_locale_nolock@@YAXQEAU__acrt_ptd@@QEAU__crt_locale_data@@@Z 0000000180024b1c     libucrt:per_thread_data.obj
 0004:00000b28       $pdata$__acrt_freeptd      0000000180024b28     libucrt:per_thread_data.obj
 0004:00000b34       $pdata$__acrt_getptd       0000000180024b34     libucrt:per_thread_data.obj
 0004:00000b40       $pdata$__acrt_getptd_noexit 0000000180024b40     libucrt:per_thread_data.obj
 0004:00000b4c       $pdata$__acrt_initialize_ptd 0000000180024b4c     libucrt:per_thread_data.obj
 0004:00000b58       $pdata$__acrt_uninitialize_ptd 0000000180024b58     libucrt:per_thread_data.obj
 0004:00000b64       $pdata$__acrt_update_locale_info 0000000180024b64     libucrt:locale_update.obj
 0004:00000b70       $pdata$__acrt_update_multibyte_info 0000000180024b70     libucrt:locale_update.obj
 0004:00000b7c       $pdata$?fp_format_a@@YAHQEBNPEAD_KQEAD2H_NIQEAU__crt_locale_pointers@@@Z 0000000180024b7c     libucrt:cvt.obj
 0004:00000b88       $pdata$?fp_format_e@@YAHQEBNQEAD_K12H_NIQEAU__crt_locale_pointers@@@Z 0000000180024b88     libucrt:cvt.obj
 0004:00000b94       $pdata$?fp_format_e_internal@@YAHQEAD_KH_NIQEAU_strflt@@2QEAU__crt_locale_pointers@@@Z 0000000180024b94     libucrt:cvt.obj
 0004:00000ba0       $pdata$?fp_format_f_internal@@YAHQEAD_KHQEAU_strflt@@_NQEAU__crt_locale_pointers@@@Z 0000000180024ba0     libucrt:cvt.obj
 0004:00000bac       $pdata$?fp_format_g@@YAHQEBNQEAD_K12H_NIQEAU__crt_locale_pointers@@@Z 0000000180024bac     libucrt:cvt.obj
 0004:00000bb8       $pdata$?fp_format_nan_or_infinity@@YAHW4__acrt_fp_class@@_NPEAD_K1@Z 0000000180024bb8     libucrt:cvt.obj
 0004:00000bc4       $pdata$__acrt_fp_format    0000000180024bc4     libucrt:cvt.obj
 0004:00000bd0       $pdata$_fileno             0000000180024bd0     libucrt:fileno.obj
 0004:00000bdc       $pdata$__acrt_initialize_stdio 0000000180024bdc     libucrt:_file.obj
 0004:00000be8       $pdata$__acrt_uninitialize_stdio 0000000180024be8     libucrt:_file.obj
 0004:00000bf4       $pdata$__acrt_uninitialize_locale 0000000180024bf4     libucrt:wsetlocale.obj
 0004:00000c00       $pdata$?initialize_inherited_file_handles_nolock@@YAXXZ 0000000180024c00     libucrt:ioinit.obj
 0004:00000c0c       $pdata$?initialize_stdio_handles_nolock@@YAXXZ 0000000180024c0c     libucrt:ioinit.obj
 0004:00000c18       $pdata$__acrt_initialize_lowio 0000000180024c18     libucrt:ioinit.obj
 0004:00000c24       $pdata$__acrt_uninitialize_lowio 0000000180024c24     libucrt:ioinit.obj
 0004:00000c30       $pdata$__pctype_func       0000000180024c30     libucrt:ctype.obj
 0004:00000c3c       $pdata$_isctype_l          0000000180024c3c     libucrt:isctype.obj
 0004:00000c48       $pdata$__acrt_initialize_locks 0000000180024c48     libucrt:locks.obj
 0004:00000c54       $pdata$__acrt_uninitialize_locks 0000000180024c54     libucrt:locks.obj
 0004:00000c60       $pdata$?try_get_function@@YAPEAXW4function_id@?A0x63058377@@QEBDQEBW4module_id@2@2@Z 0000000180024c60     libucrt:winapi_thunks.obj
 0004:00000c6c       $pdata$__acrt_FlsAlloc     0000000180024c6c     libucrt:winapi_thunks.obj
 0004:00000c78       $pdata$__acrt_FlsFree      0000000180024c78     libucrt:winapi_thunks.obj
 0004:00000c84       $pdata$__acrt_FlsGetValue  0000000180024c84     libucrt:winapi_thunks.obj
 0004:00000c90       $pdata$__acrt_FlsSetValue  0000000180024c90     libucrt:winapi_thunks.obj
 0004:00000c9c       $pdata$__acrt_InitializeCriticalSectionEx 0000000180024c9c     libucrt:winapi_thunks.obj
 0004:00000ca8       $pdata$__acrt_LCMapStringEx 0000000180024ca8     libucrt:winapi_thunks.obj
 0004:00000cb4       $pdata$__acrt_LocaleNameToLCID 0000000180024cb4     libucrt:winapi_thunks.obj
 0004:00000cc0       $pdata$__acrt_initialize_winapi_thunks 0000000180024cc0     libucrt:winapi_thunks.obj
 0004:00000ccc       $pdata$__acrt_is_packaged_app 0000000180024ccc     libucrt:winapi_thunks.obj
 0004:00000cd8       $pdata$__acrt_uninitialize_winapi_thunks 0000000180024cd8     libucrt:winapi_thunks.obj
 0004:00000ce4       $pdata$??$?RV<lambda_99476a1ad63dd22509b5d3e65b0ffc95>@@AEAV<lambda_ad1ced32f4ac17aa236e5ef05d6b3b7c>@@V<lambda_f7424dd8d45958661754dc4f2697e9c3>@@@?$__crt_seh_guarded_call@X@@QEAAX$$QEAV<lambda_99476a1ad63dd22509b5d3e65b0ffc95>@@AEAV<lambda_ad1ced32f4ac17aa236e5ef05d6b3b7c>@@$$QEAV<lambda_f7424dd8d45958661754dc4f2697e9c3>@@@Z 0000000180024ce4     libucrt:mbctype.obj
 0004:00000cf0       $pdata$??R<lambda_ad1ced32f4ac17aa236e5ef05d6b3b7c>@@QEBAXXZ 0000000180024cf0     libucrt:mbctype.obj
 0004:00000cfc       $pdata$?getSystemCP@@YAHH@Z 0000000180024cfc     libucrt:mbctype.obj
 0004:00000d08       $pdata$?setSBCS@@YAXPEAU__crt_multibyte_data@@@Z 0000000180024d08     libucrt:mbctype.obj
 0004:00000d14       $pdata$?setSBUpLow@@YAXPEAU__crt_multibyte_data@@@Z 0000000180024d14     libucrt:mbctype.obj
 0004:00000d20       $pdata$?setmbcp_internal@@YAHH_N@Z 0000000180024d20     libucrt:mbctype.obj
 0004:00000d2c       $pdata$__acrt_initialize_multibyte 0000000180024d2c     libucrt:mbctype.obj
 0004:00000d38       $pdata$__acrt_update_thread_multibyte_data 0000000180024d38     libucrt:mbctype.obj
 0004:00000d44       $pdata$_setmbcp_nolock     0000000180024d44     libucrt:mbctype.obj
 0004:00000d50       $pdata$__dcrt_get_narrow_environment_from_os 0000000180024d50     libucrt:get_environment_from_os.obj
 0004:00000d5c       $pdata$_recalloc_base      0000000180024d5c     libucrt:recalloc.obj
 0004:00000d68       $pdata$__acrt_initialize_heap 0000000180024d68     libucrt:heap_handle.obj
 0004:00000d74       $pdata$__acrt_initialize_command_line 0000000180024d74     libucrt:argv_data.obj
 0004:00000d80       $pdata$__acrt_execute_initializers 0000000180024d80     libucrt:shared_initialization.obj
 0004:00000d8c       $pdata$__acrt_execute_uninitializers 0000000180024d8c     libucrt:shared_initialization.obj
 0004:00000d98       $pdata$??$?RV<lambda_c36588078e9f5dfd39652860aa6b3aaf>@@AEAV<lambda_ec61778202f4f5fc7e7711acc23c3bca>@@V<lambda_dc9d2797ccde5d239b4a0efae8ebd7db>@@@?$__crt_seh_guarded_call@P6AXH@Z@@QEAAP6AXH@Z$$QEAV<lambda_c36588078e9f5dfd39652860aa6b3aaf>@@AEAV<lambda_ec61778202f4f5fc7e7711acc23c3bca>@@$$QEAV<lambda_dc9d2797ccde5d239b4a0efae8ebd7db>@@@Z 0000000180024d98     libucrt:signal.obj
 0004:00000da4       $pdata$__acrt_get_sigabrt_handler 0000000180024da4     libucrt:signal.obj
 0004:00000db0       $pdata$raise               0000000180024db0     libucrt:signal.obj
 0004:00000dbc       $pdata$__acrt_invoke_user_matherr 0000000180024dbc     libucrt:matherr.obj
 0004:00000dc8       $pdata$_isleadbyte_l       0000000180024dc8     libucrt:_wctype.obj
 0004:00000dd4       $pdata$?__acrt_LCMapStringA_stat@@YAHPEAU__crt_locale_pointers@@PEB_WKPEBDHPEADHHH@Z 0000000180024dd4     libucrt:lcmapstringa.obj
 0004:00000de0       $pdata$__acrt_LCMapStringA 0000000180024de0     libucrt:lcmapstringa.obj
 0004:00000dec       $pdata$__acrt_free_locale  0000000180024dec     libucrt:locale_refcounting.obj
 0004:00000df8       $pdata$__acrt_locale_free_lc_time_if_unreferenced 0000000180024df8     libucrt:locale_refcounting.obj
 0004:00000e04       $pdata$__acrt_release_locale_ref 0000000180024e04     libucrt:locale_refcounting.obj
 0004:00000e10       $pdata$__acrt_update_thread_locale_data 0000000180024e10     libucrt:locale_refcounting.obj
 0004:00000e1c       $pdata$_updatetlocinfoEx_nolock 0000000180024e1c     libucrt:locale_refcounting.obj
 0004:00000e28       $pdata$__acrt_fp_strflt_to_string 0000000180024e28     libucrt:_fptostr.obj
 0004:00000e34       $pdata$?divide@__crt_strtox@@YA_KAEAUbig_integer@1@AEBU21@@Z 0000000180024e34     libucrt:cfout.obj
 0004:00000e40       $pdata$5$?divide@__crt_strtox@@YA_KAEAUbig_integer@1@AEBU21@@Z 0000000180024e40     libucrt:cfout.obj
 0004:00000e4c       $pdata$6$?divide@__crt_strtox@@YA_KAEAUbig_integer@1@AEBU21@@Z 0000000180024e4c     libucrt:cfout.obj
 0004:00000e58       $pdata$__acrt_fltout       0000000180024e58     libucrt:cfout.obj
 0004:00000e64       $pdata$memcpy_s            0000000180024e64     libucrt:cfout.obj
 0004:00000e70       $pdata$_fcloseall          0000000180024e70     libucrt:closeall.obj
 0004:00000e7c       $pdata$__acrt_stdio_flush_nolock 0000000180024e7c     libucrt:fflush.obj
 0004:00000e88       $pdata$_fflush_nolock      0000000180024e88     libucrt:fflush.obj
 0004:00000e94       $pdata$common_flush_all    0000000180024e94     libucrt:fflush.obj
 0004:00000ea0       $pdata$__acrt_stdio_free_buffer_nolock 0000000180024ea0     libucrt:_freebuf.obj
 0004:00000eac       $pdata$_isatty             0000000180024eac     libucrt:isatty.obj
 0004:00000eb8       $pdata$__acrt_locale_free_monetary 0000000180024eb8     libucrt:initmon.obj
 0004:00000ec4       $pdata$__acrt_locale_free_numeric 0000000180024ec4     libucrt:initnum.obj
 0004:00000ed0       $pdata$?free_crt_array_internal@@YAXQEAPEBX_K@Z 0000000180024ed0     libucrt:inittime.obj
 0004:00000edc       $pdata$__acrt_locale_free_time 0000000180024edc     libucrt:inittime.obj
 0004:00000ee8       $pdata$__acrt_GetStringTypeA 0000000180024ee8     libucrt:getstringtypea.obj
 0004:00000ef4       $pdata$__acrt_lowio_create_handle_array 0000000180024ef4     libucrt:osfinfo.obj
 0004:00000f00       $pdata$__acrt_lowio_destroy_handle_array 0000000180024f00     libucrt:osfinfo.obj
 0004:00000f0c       $pdata$__acrt_lowio_ensure_fh_exists 0000000180024f0c     libucrt:osfinfo.obj
 0004:00000f18       $pdata$_free_osfhnd        0000000180024f18     libucrt:osfinfo.obj
 0004:00000f24       $pdata$_get_osfhandle      0000000180024f24     libucrt:osfinfo.obj
 0004:00000f30       $pdata$?GetTableIndexFromLocaleName@@YAHPEB_W@Z 0000000180024f30     libucrt:lcidtoname_downlevel.obj
 0004:00000f3c       $pdata$__acrt_DownlevelLocaleNameToLCID 0000000180024f3c     libucrt:lcidtoname_downlevel.obj
 0004:00000f48       $pdata$?initialize_multibyte@@YAHXZ 0000000180024f48     libucrt:multibyte_initializer.obj
 0004:00000f54       $pdata$_msize              0000000180024f54     libucrt:msize.obj
 0004:00000f60       $pdata$_realloc_base       0000000180024f60     libucrt:realloc_base.obj
 0004:00000f6c       $pdata$fegetenv            0000000180024f6c     libucrt:fegetenv.obj
 0004:00000f78       $pdata$fesetenv            0000000180024f78     libucrt:fesetenv.obj
 0004:00000f84       $pdata$feholdexcept        0000000180024f84     libucrt:feholdexcept.obj
 0004:00000f9c       $pdata$?write_double_translated_ansi_nolock@@YA?AUwrite_result@?A0x9c548279@@HQEBDI@Z 0000000180024f9c     libucrt:write.obj
 0004:00000fa8       $pdata$?write_text_ansi_nolock@@YA?AUwrite_result@?A0x9c548279@@HQEBDI@Z 0000000180024fa8     libucrt:write.obj
 0004:00000fb4       $pdata$?write_text_utf16le_nolock@@YA?AUwrite_result@?A0x9c548279@@HQEBDI@Z 0000000180024fb4     libucrt:write.obj
 0004:00000fc0       $pdata$?write_text_utf8_nolock@@YA?AUwrite_result@?A0x9c548279@@HQEBDI@Z 0000000180024fc0     libucrt:write.obj
 0004:00000fcc       $pdata$_write              0000000180024fcc     libucrt:write.obj
 0004:00000fd8       $pdata$_write_nolock       0000000180024fd8     libucrt:write.obj
 0004:00000fe4       $pdata$??$common_lseek_nolock@_J@@YA_JH_JH@Z 0000000180024fe4     libucrt:lseek.obj
 0004:00000ff0       $pdata$_fclose_nolock      0000000180024ff0     libucrt:fclose.obj
 0004:00000ffc       $pdata$fclose              0000000180024ffc     libucrt:fclose.obj
 0004:00001008       $pdata$??$?RV<lambda_b521505b218e5242e90febf6bfebc422>@@AEAV<lambda_6978c1fb23f02e42e1d9e99668cc68aa>@@V<lambda_314360699dd331753a4119843814e9a7>@@@?$__crt_seh_guarded_call@H@@QEAAH$$QEAV<lambda_b521505b218e5242e90febf6bfebc422>@@AEAV<lambda_6978c1fb23f02e42e1d9e99668cc68aa>@@$$QEAV<lambda_314360699dd331753a4119843814e9a7>@@@Z 0000000180025008     libucrt:commit.obj
 0004:00001014       $pdata$_commit             0000000180025014     libucrt:commit.obj
 0004:00001020       $pdata$_getfpcontrolword   0000000180025020     libucrt:_fenvutils.obj
 0004:0000102c       $pdata$_getfpstatusword    000000018002502c     libucrt:_fenvutils.obj
 0004:00001038       $pdata$_setfpstatusword    0000000180025038     libucrt:_fenvutils.obj
 0004:00001044       $pdata$_clearfp            0000000180025044     libucrt:ieee.obj
 0004:00001050       $pdata$common_control87    0000000180025050     libucrt:ieee.obj
 0004:0000105c       $pdata$_call_matherr       000000018002505c     libucrt:libm_error.obj
 0004:00001068       $pdata$_exception_enabled  0000000180025068     libucrt:libm_error.obj
 0004:00001074       $pdata$_handle_error       0000000180025074     libucrt:libm_error.obj
 0004:00001080       $pdata$__acrt_initialize_fma3 0000000180025080     libucrt:fma3_available.obj
 0004:0000108c       $pdata$_log10_special      000000018002508c     libucrt:log_special.obj
 0004:00001098       $pdata$_log_special_common 0000000180025098     libucrt:log_special.obj
 0004:000010a4       $pdata$_putwch_nolock      00000001800250a4     libucrt:putwch.obj
 0004:000010b0       $pdata$??$?RV<lambda_bfedae4ebbf01fab1bb6dcc6a9e276e0>@@AEAV<lambda_2fe9b910cf3cbf4a0ab98a02ba45b3ec>@@V<lambda_237c231691f317818eb88cc1d5d642d6>@@@?$__crt_seh_guarded_call@H@@QEAAH$$QEAV<lambda_bfedae4ebbf01fab1bb6dcc6a9e276e0>@@AEAV<lambda_2fe9b910cf3cbf4a0ab98a02ba45b3ec>@@$$QEAV<lambda_237c231691f317818eb88cc1d5d642d6>@@@Z 00000001800250b0     libucrt:close.obj
 0004:000010bc       $pdata$_close              00000001800250bc     libucrt:close.obj
 0004:000010c8       $pdata$_close_nolock       00000001800250c8     libucrt:close.obj
 0004:000010e0       $pdata$_raise_exc          00000001800250e0     libucrt:fpexcept.obj
 0004:000010ec       $pdata$_raise_exc_ex       00000001800250ec     libucrt:fpexcept.obj
 0004:000010f8       $pdata$_set_errno_from_matherr 00000001800250f8     libucrt:fpexcept.obj
 0004:00001104       $pdata$_clrfp              0000000180025104     libucrt:fpctrl.obj
 0004:00001110       $pdata$_ctrlfp             0000000180025110     libucrt:fpctrl.obj
 0004:0000111c       $pdata$_set_statfp         000000018002511c     libucrt:fpctrl.obj
 0004:00001128       $pdata$_statfp             0000000180025128     libucrt:fpctrl.obj
 0004:00001134       $pdata$__dcrt_lowio_initialize_console_output 0000000180025134     libucrt:initcon.obj
 0004:00001140       $pdata$__dcrt_terminate_console_output 0000000180025140     libucrt:initcon.obj
 0004:0000114c       $pdata$?DloadAcquireSectionWriteAccess@@YAXXZ 000000018002514c     DelayImp:delayhlp.obj
 0004:00001158       $pdata$?DloadGetSRWLockFunctionPointers@@YAEXZ 0000000180025158     DelayImp:delayhlp.obj
 0004:00001164       $pdata$?DloadMakePermanentImageCommit@@YAXPEAX_K@Z 0000000180025164     DelayImp:delayhlp.obj
 0004:00001170       $pdata$?DloadObtainSection@@YAPEAXPEAK0@Z 0000000180025170     DelayImp:delayhlp.obj
 0004:0000117c       $pdata$?DloadProtectSection@@YAXKPEAK@Z 000000018002517c     DelayImp:delayhlp.obj
 0004:00001188       $pdata$?DloadReleaseSectionWriteAccess@@YAXXZ 0000000180025188     DelayImp:delayhlp.obj
 0004:00001194       $pdata$__delayLoadHelper2  0000000180025194     DelayImp:delayhlp.obj
 0004:000011a0       $pdata$_IsNonwritableInCurrentImage 00000001800251a0     LIBCMT:pesect.obj
 0004:000011ac       $pdata$__GSHandlerCheck    00000001800251ac     LIBCMT:_gshandler_.obj
 0004:000011b8       $pdata$__GSHandlerCheckCommon 00000001800251b8     LIBCMT:_gshandler_.obj
 0004:000011d0       $pdata$strrchr             00000001800251d0     libvcruntime:strrchr.obj
 0004:000011f4       $pdata$__scrt_is_nonwritable_in_current_image$filt$0 00000001800251f4     LIBCMT:utility.obj
 0004:00001200       $pdata$?fin$0@?0??dllmain_crt_process_attach@@YAHQEAUHINSTANCE__@@QEAX@Z@4HA 0000000180025200     LIBCMT:dll_dllmain.obj
 0004:0000120c       $pdata$?fin$0@?0??dllmain_crt_process_detach@@YAH_N@Z@4HA 000000018002520c     LIBCMT:dll_dllmain.obj
 0004:00001218       $pdata$?filt$0@?0??dllmain_dispatch@@YAHQEAUHINSTANCE__@@KQEAX@Z@4HA 0000000180025218     LIBCMT:dll_dllmain.obj
 0004:00001224       $pdata$_query_new_handler$fin$0 0000000180025224     libucrt:new_handler.obj
 0004:00001230       $pdata$?filt$0@?0??common_exit@@YAXHW4_crt_exit_cleanup_mode@@W4_crt_exit_return_mode@@@Z@4HA 0000000180025230     libucrt:exit.obj
 0004:0000123c       $pdata$?fin$1@?0??common_exit@@YAXHW4_crt_exit_cleanup_mode@@W4_crt_exit_return_mode@@@Z@4HA 000000018002523c     libucrt:exit.obj
 0004:00001248       $pdata$?fin$0@?0???$?RV<lambda_72d1df2b273a38828b1ce30cbf4cdab5>@@AEAV<lambda_876a65b173b8412d3a47c70a915b0cf4>@@V<lambda_41932305e351933ebe8f8be3ed8bb5dc>@@@?$__crt_seh_guarded_call@X@@QEAAX$$QEAV<lambda_72d1df2b273a38828b1ce30cbf4cdab5>@@AEAV<lambda_876a65b173b8412d3a47c70a915b0cf4>@@$$QEAV<lambda_41932305e351933ebe8f8be3ed8bb5dc>@@@Z@4HA 0000000180025248     libucrt:per_thread_data.obj
 0004:00001248       $pdata$?fin$0@?0???$?RV<lambda_c36588078e9f5dfd39652860aa6b3aaf>@@AEAV<lambda_ec61778202f4f5fc7e7711acc23c3bca>@@V<lambda_dc9d2797ccde5d239b4a0efae8ebd7db>@@@?$__crt_seh_guarded_call@P6AXH@Z@@QEAAP6AXH@Z$$QEAV<lambda_c36588078e9f5dfd39652860aa6b3aaf>@@AEAV<lambda_ec61778202f4f5fc7e7711acc23c3bca>@@$$QEAV<lambda_dc9d2797ccde5d239b4a0efae8ebd7db>@@@Z@4HA 0000000180025248     libucrt:signal.obj
 0004:00001248       $pdata$?fin$0@?0???$?RV<lambda_5e887d1dcbef67a5eb4283622ba103bf>@@AEAV<lambda_4466841279450cc726390878d4a41900>@@V<lambda_341c25c0346d94847f1f3c463c57e077>@@@?$__crt_seh_guarded_call@X@@QEAAX$$QEAV<lambda_5e887d1dcbef67a5eb4283622ba103bf>@@AEAV<lambda_4466841279450cc726390878d4a41900>@@$$QEAV<lambda_341c25c0346d94847f1f3c463c57e077>@@@Z@4HA 0000000180025248     libucrt:per_thread_data.obj
 0004:00001248       $pdata$?fin$0@?0???$?RV<lambda_99476a1ad63dd22509b5d3e65b0ffc95>@@AEAV<lambda_ad1ced32f4ac17aa236e5ef05d6b3b7c>@@V<lambda_f7424dd8d45958661754dc4f2697e9c3>@@@?$__crt_seh_guarded_call@X@@QEAAX$$QEAV<lambda_99476a1ad63dd22509b5d3e65b0ffc95>@@AEAV<lambda_ad1ced32f4ac17aa236e5ef05d6b3b7c>@@$$QEAV<lambda_f7424dd8d45958661754dc4f2697e9c3>@@@Z@4HA 0000000180025248     libucrt:mbctype.obj
 0004:00001248       $pdata$?fin$0@?0???$?RV<lambda_46352004c1216016012b18bd6f87e700>@@AEAV<lambda_3bd07e1a1191394380780325891bf33f>@@V<lambda_334532d3f185bcaa59b5be82d7d22bff>@@@?$__crt_seh_guarded_call@X@@QEAAX$$QEAV<lambda_46352004c1216016012b18bd6f87e700>@@AEAV<lambda_3bd07e1a1191394380780325891bf33f>@@$$QEAV<lambda_334532d3f185bcaa59b5be82d7d22bff>@@@Z@4HA 0000000180025248     libucrt:per_thread_data.obj
 0004:00001248       $pdata$?fin$0@?0???$?RV<lambda_fb3a7dec4e47f37f22dae91bb15c9095>@@AEAV<lambda_698284760c8add0bfb0756c19673e34b>@@V<lambda_dfb8eca1e75fef3034a8fb18dd509707>@@@?$__crt_seh_guarded_call@X@@QEAAX$$QEAV<lambda_fb3a7dec4e47f37f22dae91bb15c9095>@@AEAV<lambda_698284760c8add0bfb0756c19673e34b>@@$$QEAV<lambda_dfb8eca1e75fef3034a8fb18dd509707>@@@Z@4HA 0000000180025248     libucrt:per_thread_data.obj
 0004:00001248       $pdata$?fin$0@?0???$?RV<lambda_b8c45f8f788dd370798f47cfe8ac3a86>@@AEAV<lambda_4e60a939b0d047cfe11ddc22648dfba9>@@V<lambda_332c3edc96d0294ec56c57d38c1cdfd5>@@@?$__crt_seh_guarded_call@H@@QEAAH$$QEAV<lambda_b8c45f8f788dd370798f47cfe8ac3a86>@@AEAV<lambda_4e60a939b0d047cfe11ddc22648dfba9>@@$$QEAV<lambda_332c3edc96d0294ec56c57d38c1cdfd5>@@@Z@4HA 0000000180025248     libucrt:onexit.obj
 0004:00001254       $pdata$?fin$0@?0???$?RV<lambda_e24bbb7b643b32fcea6fa61b31d4c984>@@AEAV<lambda_275893d493268fdec8709772e3fcec0e>@@V<lambda_9d71df4d7cf3f480f8d633942495c3b0>@@@?$__crt_seh_guarded_call@H@@QEAAH$$QEAV<lambda_e24bbb7b643b32fcea6fa61b31d4c984>@@AEAV<lambda_275893d493268fdec8709772e3fcec0e>@@$$QEAV<lambda_9d71df4d7cf3f480f8d633942495c3b0>@@@Z@4HA 0000000180025254     libucrt:onexit.obj
 0004:00001260       $pdata$__acrt_lowio_ensure_fh_exists$fin$0 0000000180025260     libucrt:osfinfo.obj
 0004:00001260       $pdata$__acrt_initialize_lowio$fin$0 0000000180025260     libucrt:ioinit.obj
 0004:0000126c       $pdata$__acrt_update_thread_multibyte_data$fin$0 000000018002526c     libucrt:mbctype.obj
 0004:00001278       $pdata$raise$fin$0         0000000180025278     libucrt:signal.obj
 0004:00001284       $pdata$__acrt_uninitialize_locale$fin$0 0000000180025284     libucrt:wsetlocale.obj
 0004:00001284       $pdata$__acrt_update_thread_locale_data$fin$0 0000000180025284     libucrt:locale_refcounting.obj
 0004:00001290       $pdata$_fcloseall$fin$0    0000000180025290     libucrt:closeall.obj
 0004:0000129c       $pdata$common_flush_all$fin$0 000000018002529c     libucrt:fflush.obj
 0004:000012a8       $pdata$common_flush_all$fin$1 00000001800252a8     libucrt:fflush.obj
 0004:000012b4       $pdata$_write$fin$0        00000001800252b4     libucrt:write.obj
 0004:000012c0       $pdata$fclose$fin$0        00000001800252c0     libucrt:fclose.obj
 0004:000012cc       $pdata$?fin$0@?0???$?RV<lambda_b521505b218e5242e90febf6bfebc422>@@AEAV<lambda_6978c1fb23f02e42e1d9e99668cc68aa>@@V<lambda_314360699dd331753a4119843814e9a7>@@@?$__crt_seh_guarded_call@H@@QEAAH$$QEAV<lambda_b521505b218e5242e90febf6bfebc422>@@AEAV<lambda_6978c1fb23f02e42e1d9e99668cc68aa>@@$$QEAV<lambda_314360699dd331753a4119843814e9a7>@@@Z@4HA 00000001800252cc     libucrt:commit.obj
 0004:000012cc       $pdata$?fin$0@?0???$?RV<lambda_bfedae4ebbf01fab1bb6dcc6a9e276e0>@@AEAV<lambda_2fe9b910cf3cbf4a0ab98a02ba45b3ec>@@V<lambda_237c231691f317818eb88cc1d5d642d6>@@@?$__crt_seh_guarded_call@H@@QEAAH$$QEAV<lambda_bfedae4ebbf01fab1bb6dcc6a9e276e0>@@AEAV<lambda_2fe9b910cf3cbf4a0ab98a02ba45b3ec>@@$$QEAV<lambda_237c231691f317818eb88cc1d5d642d6>@@@Z@4HA 00000001800252cc     libucrt:close.obj
 0004:000012d8       $pdata$common_control87$filt$0 00000001800252d8     libucrt:ieee.obj
 0004:000012d8       $pdata$_ctrlfp$filt$0      00000001800252d8     libucrt:fpctrl.obj
 0004:000012e4       $pdata$_IsNonwritableInCurrentImage$filt$0 00000001800252e4     LIBCMT:pesect.obj
 0004:000012f0       $pdata$??__FemptyString@?1??convertToString@@YA?AV?$basic_string@DU?$char_traits@D@std@@V?$allocator@D@2@@std@@AEBV?$Local@VValue@v8@@@v8@@@Z@YAXXZ 00000001800252f0     rfcio.obj
 0005:00000000       __guard_fids__             0000000180026000     libucrt:initialization.obj
 0005:00000060       __guard_fids___acrt_initialize_ptd 0000000180026060     libucrt:per_thread_data.obj
 0005:00000064       __guard_fids__             0000000180026064     libucrt:stdio_initializer.obj
 0005:00000068       __guard_fids__             0000000180026068     libucrt:stdio_initializer.obj
 0005:0000006c       __guard_fids__             000000018002606c     libucrt:locale_initializer.obj
 0005:00000070       __guard_fids__             0000000180026070     libucrt:multibyte_initializer.obj
 0005:00000074       __guard_fids__             0000000180026074     libucrt:fma3_initializer.obj
 0005:00000078       __guard_fids__             0000000180026078     libucrt:console_output_initializer.obj
 0005:0000007c       __guard_fids__             000000018002607c     libcpmt:xthrow.obj
 0005:00000084       __guard_fids__             0000000180026084     libcpmt:xthrow.obj
 0005:0000008c       __guard_fids__             000000018002608c     libcpmt:xthrow.obj
 0005:00000094       __guard_fids__             0000000180026094     libcpmt:xthrow.obj
 0005:0000009c       __guard_fids__             000000018002609c     libcpmt:xthrow.obj
 0005:000000a4       __guard_fids__             00000001800260a4     LIBCMT:thread_safe_statics.obj
 0005:000000a8       __guard_fids_?__scrt_initialize_thread_safe_statics@@YAHXZ 00000001800260a8     LIBCMT:thread_safe_statics.obj
 0005:000000ac       __guard_fids_?dllmain_crt_process_attach@@YAHQEAUHINSTANCE__@@QEAX@Z 00000001800260ac     LIBCMT:dll_dllmain.obj
 0005:000000b4       __guard_fids_?dllmain_dispatch@@YAHQEAUHINSTANCE__@@KQEAX@Z 00000001800260b4     LIBCMT:dll_dllmain.obj
 0005:000000b8       __guard_fids__             00000001800260b8     LIBCMT:std_type_info_static.obj
 0005:000000bc       __guard_fids__             00000001800260bc     LIBCMT:throw_bad_alloc.obj
 0005:000000c4       __guard_fids__             00000001800260c4     LIBCMT:guard_support.obj
 0005:000000c8       __guard_fids__             00000001800260c8     libvcruntime:telemetry.obj
 0005:000000cc       __guard_fids_?TraceLoggingRegister@__vcrt_trace_logging_provider@@YAJPEBU_TlgProvider_t@1@PEBU_GUID@@P6AX1KE_K2PEAU_EVENT_FILTER_DESCRIPTOR@@PEAX@Z4@Z 00000001800260cc     libvcruntime:telemetry.obj
 0005:000000d0       __guard_fids___vcrt_initialize_ptd 00000001800260d0     libvcruntime:per_thread_data.obj
 0007:00000060       $R000000                   0000000180028060     * linker generated manifest res *

 Exports

  ordinal    name

        1    _register_rfc_
